ARM GAS  C:\Users\TT\AppData\Local\Temp\ccVNySDY.s 			page 1


   1              		.cpu cortex-m7
   2              		.eabi_attribute 28, 1
   3              		.eabi_attribute 20, 1
   4              		.eabi_attribute 21, 1
   5              		.eabi_attribute 23, 3
   6              		.eabi_attribute 24, 1
   7              		.eabi_attribute 25, 1
   8              		.eabi_attribute 26, 1
   9              		.eabi_attribute 30, 2
  10              		.eabi_attribute 34, 1
  11              		.eabi_attribute 18, 4
  12              		.file	"bass_stompbox.cpp"
  13              		.text
  14              		.section	.text._ZN5daisy9ParameterD2Ev,"axG",%progbits,_ZN5daisy9ParameterD5Ev,comdat
  15              		.align	1
  16              		.p2align 2,,3
  17              		.weak	_ZN5daisy9ParameterD2Ev
  18              		.arch armv7e-m
  19              		.syntax unified
  20              		.thumb
  21              		.thumb_func
  22              		.fpu fpv5-d16
  24              	_ZN5daisy9ParameterD2Ev:
  25              		@ args = 0, pretend = 0, frame = 0
  26              		@ frame_needed = 0, uses_anonymous_args = 0
  27              		@ link register save eliminated.
  28 0000 7047     		bx	lr
  30              		.weak	_ZN5daisy9ParameterD1Ev
  31              		.thumb_set _ZN5daisy9ParameterD1Ev,_ZN5daisy9ParameterD2Ev
  32 0002 00BF     		.section	.text._ZN5daisy10DaisyPetalD2Ev,"axG",%progbits,_ZN5daisy10DaisyPetalD5Ev,comdat
  33              		.align	1
  34              		.p2align 2,,3
  35              		.weak	_ZN5daisy10DaisyPetalD2Ev
  36              		.syntax unified
  37              		.thumb
  38              		.thumb_func
  39              		.fpu fpv5-d16
  41              	_ZN5daisy10DaisyPetalD2Ev:
  42              		@ args = 0, pretend = 0, frame = 0
  43              		@ frame_needed = 0, uses_anonymous_args = 0
  44              		@ link register save eliminated.
  45 0000 7047     		bx	lr
  47              		.weak	_ZN5daisy10DaisyPetalD1Ev
  48              		.thumb_set _ZN5daisy10DaisyPetalD1Ev,_ZN5daisy10DaisyPetalD2Ev
  49 0002 00BF     		.section	.text._ZN7daisysp10CompressorD2Ev,"axG",%progbits,_ZN7daisysp10CompressorD5Ev,comdat
  50              		.align	1
  51              		.p2align 2,,3
  52              		.weak	_ZN7daisysp10CompressorD2Ev
  53              		.syntax unified
  54              		.thumb
  55              		.thumb_func
  56              		.fpu fpv5-d16
  58              	_ZN7daisysp10CompressorD2Ev:
  59              		@ args = 0, pretend = 0, frame = 0
  60              		@ frame_needed = 0, uses_anonymous_args = 0
  61              		@ link register save eliminated.
  62 0000 7047     		bx	lr
ARM GAS  C:\Users\TT\AppData\Local\Temp\ccVNySDY.s 			page 2


  64              		.weak	_ZN7daisysp10CompressorD1Ev
  65              		.thumb_set _ZN7daisysp10CompressorD1Ev,_ZN7daisysp10CompressorD2Ev
  66 0002 00BF     		.section	.text._ZN7daisysp4ToneD2Ev,"axG",%progbits,_ZN7daisysp4ToneD5Ev,comdat
  67              		.align	1
  68              		.p2align 2,,3
  69              		.weak	_ZN7daisysp4ToneD2Ev
  70              		.syntax unified
  71              		.thumb
  72              		.thumb_func
  73              		.fpu fpv5-d16
  75              	_ZN7daisysp4ToneD2Ev:
  76              		@ args = 0, pretend = 0, frame = 0
  77              		@ frame_needed = 0, uses_anonymous_args = 0
  78              		@ link register save eliminated.
  79 0000 7047     		bx	lr
  81              		.weak	_ZN7daisysp4ToneD1Ev
  82              		.thumb_set _ZN7daisysp4ToneD1Ev,_ZN7daisysp4ToneD2Ev
  83 0002 00BF     		.section	.text._ZN7daisysp7FlangerD2Ev,"axG",%progbits,_ZN7daisysp7FlangerD5Ev,comdat
  84              		.align	1
  85              		.p2align 2,,3
  86              		.weak	_ZN7daisysp7FlangerD2Ev
  87              		.syntax unified
  88              		.thumb
  89              		.thumb_func
  90              		.fpu fpv5-d16
  92              	_ZN7daisysp7FlangerD2Ev:
  93              		@ args = 0, pretend = 0, frame = 0
  94              		@ frame_needed = 0, uses_anonymous_args = 0
  95              		@ link register save eliminated.
  96 0000 7047     		bx	lr
  98              		.weak	_ZN7daisysp7FlangerD1Ev
  99              		.thumb_set _ZN7daisysp7FlangerD1Ev,_ZN7daisysp7FlangerD2Ev
 100 0002 00BF     		.section	.text._Z13AudioCallbackPfS_j,"ax",%progbits
 101              		.align	1
 102              		.p2align 2,,3
 103              		.global	_Z13AudioCallbackPfS_j
 104              		.syntax unified
 105              		.thumb
 106              		.thumb_func
 107              		.fpu fpv5-d16
 109              	_Z13AudioCallbackPfS_j:
 110              		@ args = 0, pretend = 0, frame = 8
 111              		@ frame_needed = 0, uses_anonymous_args = 0
 112 0000 2DE9F04F 		push	{r4, r5, r6, r7, r8, r9, r10, fp, lr}
 113 0004 2DED028B 		vpush.64	{d8}
 114 0008 83B0     		sub	sp, sp, #12
 115 000a 0446     		mov	r4, r0
 116 000c 9E48     		ldr	r0, .L29
 117 000e 8946     		mov	r9, r1
 118 0010 9E4E     		ldr	r6, .L29+4
 119 0012 0192     		str	r2, [sp, #4]
 120 0014 FFF7FEFF 		bl	_ZN5daisy10DaisyPetal21ProcessAnalogControlsEv
 121 0018 9B48     		ldr	r0, .L29
 122 001a FFF7FEFF 		bl	_ZN5daisy10DaisyPetal22ProcessDigitalControlsEv
 123 001e FAEE0E7A 		vmov.f32	s15, #-1.5e+1
 124 0022 96F83C30 		ldrb	r3, [r6, #60]	@ zero_extendqisi2
 125 0026 C6ED017A 		vstr.32	s15, [r6, #4]
ARM GAS  C:\Users\TT\AppData\Local\Temp\ccVNySDY.s 			page 3


 126 002a 6BB1     		cbz	r3, .L8
 127 002c 96ED006A 		vldr.32	s12, [r6]
 128 0030 B6EE007A 		vmov.f32	s14, #5.0e-1
 129 0034 C7EE866A 		vdiv.f32	s13, s15, s12
 130 0038 77EEE67A 		vsub.f32	s15, s15, s13
 131 003c F0EEE77A 		vabs.f32	s15, s15
 132 0040 67EE877A 		vmul.f32	s15, s15, s14
 133 0044 C6ED047A 		vstr.32	s15, [r6, #16]
 134              	.L8:
 135 0048 B7EE008A 		vmov.f32	s16, #1.0e+0
 136 004c 9048     		ldr	r0, .L29+8
 137 004e FFF7FEFF 		bl	_ZN5daisy9Parameter7ProcessEv
 138 0052 DFED908A 		vldr.32	s17, .L29+12
 139 0056 96ED0E7A 		vldr.32	s14, [r6, #56]
 140 005a D6ED087A 		vldr.32	s15, [r6, #32]
 141 005e C7EE286A 		vdiv.f32	s13, s14, s17
 142 0062 86ED000A 		vstr.32	s0, [r6]
 143 0066 C6ED028A 		vstr.32	s17, [r6, #8]
 144 006a DFF868A2 		ldr	r10, .L29+76
 145 006e 8A4D     		ldr	r5, .L29+16
 146 0070 DFF864B2 		ldr	fp, .L29+80
 147 0074 88EE007A 		vdiv.f32	s14, s16, s0
 148 0078 78EE677A 		vsub.f32	s15, s16, s15
 149 007c B1EE660A 		vneg.f32	s0, s13
 150 0080 37EE487A 		vsub.f32	s14, s14, s16
 151 0084 67EE877A 		vmul.f32	s15, s15, s14
 152 0088 C6ED097A 		vstr.32	s15, [r6, #36]
 153 008c FFF7FEFF 		bl	expf
 154 0090 96ED0D7A 		vldr.32	s14, [r6, #52]
 155 0094 D6ED027A 		vldr.32	s15, [r6, #8]
 156 0098 86ED0A0A 		vstr.32	s0, [r6, #40]
 157 009c 87EE270A 		vdiv.f32	s0, s14, s15
 158 00a0 B1EE400A 		vneg.f32	s0, s0
 159 00a4 FFF7FEFF 		bl	expf
 160 00a8 D6ED006A 		vldr.32	s13, [r6]
 161 00ac 96ED0E7A 		vldr.32	s14, [r6, #56]
 162 00b0 C8EE267A 		vdiv.f32	s15, s16, s13
 163 00b4 86ED080A 		vstr.32	s0, [r6, #32]
 164 00b8 C6ED038A 		vstr.32	s17, [r6, #12]
 165 00bc C7EE286A 		vdiv.f32	s13, s14, s17
 166 00c0 38EE407A 		vsub.f32	s14, s16, s0
 167 00c4 77EEC87A 		vsub.f32	s15, s15, s16
 168 00c8 67EE877A 		vmul.f32	s15, s15, s14
 169 00cc B1EE660A 		vneg.f32	s0, s13
 170 00d0 C6ED097A 		vstr.32	s15, [r6, #36]
 171 00d4 FFF7FEFF 		bl	expf
 172 00d8 7049     		ldr	r1, .L29+20
 173 00da 86ED0B0A 		vstr.32	s0, [r6, #44]
 174 00de 6A4E     		ldr	r6, .L29
 175 00e0 0B78     		ldrb	r3, [r1]	@ zero_extendqisi2
 176 00e2 96F82521 		ldrb	r2, [r6, #293]	@ zero_extendqisi2
 177 00e6 06F19400 		add	r0, r6, #148
 178 00ea 7F2A     		cmp	r2, #127
 179 00ec 08BF     		it	eq
 180 00ee 83F00103 		eoreq	r3, r3, #1
 181 00f2 0B70     		strb	r3, [r1]
 182 00f4 FFF7FEFF 		bl	_ZN5daisy13AnalogControl7ProcessEv
ARM GAS  C:\Users\TT\AppData\Local\Temp\ccVNySDY.s 			page 4


 183 00f8 6948     		ldr	r0, .L29+24
 184 00fa 8AED000A 		vstr.32	s0, [r10]
 185 00fe B6EE000A 		vmov.f32	s0, #5.0e-1
 186 0102 FFF7FEFF 		bl	_ZN7daisysp7Flanger11SetFeedbackEf
 187 0106 06F1CC00 		add	r0, r6, #204
 188 010a FFF7FEFF 		bl	_ZN5daisy13AnalogControl7ProcessEv
 189 010e F2EE047A 		vmov.f32	s15, #1.0e+1
 190 0112 20EE000A 		vmul.f32	s0, s0, s0
 191 0116 6248     		ldr	r0, .L29+24
 192 0118 20EE270A 		vmul.f32	s0, s0, s15
 193 011c FFF7FEFF 		bl	_ZN7daisysp7Flanger10SetLfoFreqEf
 194 0120 06F1E800 		add	r0, r6, #232
 195 0124 FFF7FEFF 		bl	_ZN5daisy13AnalogControl7ProcessEv
 196 0128 96F83521 		ldrb	r2, [r6, #309]	@ zero_extendqisi2
 197 012c 2B78     		ldrb	r3, [r5]	@ zero_extendqisi2
 198 012e D6ED167A 		vldr.32	s15, [r6, #88]	@ int
 199 0132 7F2A     		cmp	r2, #127
 200 0134 08BF     		it	eq
 201 0136 83F00103 		eoreq	r3, r3, #1
 202 013a 9FED5A6A 		vldr.32	s12, .L29+28
 203 013e B8EEE77A 		vcvt.f32.s32	s14, s15
 204 0142 DFED596A 		vldr.32	s13, .L29+32
 205 0146 2B70     		strb	r3, [r5]
 206 0148 584B     		ldr	r3, .L29+36
 207 014a 5948     		ldr	r0, .L29+40
 208 014c D3ED007A 		vldr.32	s15, [r3]
 209 0150 8BED000A 		vstr.32	s0, [fp]
 210 0154 E7EE067A 		vfma.f32	s15, s14, s12
 211              		.syntax unified
 212              	@ 36 "../../DaisySP/Source/Utility/dsp.h" 1
 213 0158 C7FEA67A 		vmaxnm.f32 s15, s15, s13
 214              	@ 0 "" 2
 215              	@ 47 "../../DaisySP/Source/Utility/dsp.h" 1
 216 015c C7FEC87A 		vminnm.f32 s15, s15, s16
 217              	@ 0 "" 2
 218              		.thumb
 219              		.syntax unified
 220 0160 C3ED007A 		vstr.32	s15, [r3]
 221 0164 534B     		ldr	r3, .L29+44
 222 0166 C360     		str	r3, [r0, #12]	@ float
 223 0168 FFF7FEFF 		bl	_ZN7daisysp4Tone21CalculateCoefficientsEv
 224 016c 06F1B000 		add	r0, r6, #176
 225 0170 FFF7FEFF 		bl	_ZN5daisy13AnalogControl7ProcessEv
 226 0174 2B78     		ldrb	r3, [r5]	@ zero_extendqisi2
 227 0176 504A     		ldr	r2, .L29+48
 228 0178 B0EE408A 		vmov.f32	s16, s0
 229 017c 1370     		strb	r3, [r2]
 230 017e 019B     		ldr	r3, [sp, #4]
 231 0180 002B     		cmp	r3, #0
 232 0182 7CD0     		beq	.L7
 233 0184 0025     		movs	r5, #0
 234 0186 4D4E     		ldr	r6, .L29+52
 235 0188 DFF85081 		ldr	r8, .L29+84
 236 018c 4C4F     		ldr	r7, .L29+56
 237 018e 0BE0     		b	.L14
 238              	.L11:
 239 0190 494B     		ldr	r3, .L29+48
ARM GAS  C:\Users\TT\AppData\Local\Temp\ccVNySDY.s 			page 5


 240 0192 4C4A     		ldr	r2, .L29+60
 241 0194 1B78     		ldrb	r3, [r3]	@ zero_extendqisi2
 242 0196 C2ED007A 		vstr.32	s15, [r2]
 243 019a 002B     		cmp	r3, #0
 244 019c 5ED1     		bne	.L28
 245 019e 019B     		ldr	r3, [sp, #4]
 246 01a0 E9EC017A 		vstmia.32	r9!, {s15}
 247 01a4 AB42     		cmp	r3, r5
 248 01a6 6AD0     		beq	.L7
 249              	.L14:
 250 01a8 94ED000A 		vldr.32	s0, [r4]
 251 01ac 0135     		adds	r5, r5, #1
 252 01ae 3748     		ldr	r0, .L29+4
 253 01b0 30EE000A 		vadd.f32	s0, s0, s0
 254 01b4 DFED448A 		vldr.32	s17, .L29+64
 255 01b8 FFF7FEFF 		bl	_ZN7daisysp10Compressor7ProcessEf
 256 01bc D8ED007A 		vldr.32	s15, [r8]
 257 01c0 DAED006A 		vldr.32	s13, [r10]
 258 01c4 B0EE407A 		vmov.f32	s14, s0
 259 01c8 404B     		ldr	r3, .L29+68
 260 01ca B5EE006A 		vmov.f32	s12, #2.5e-1
 261 01ce 76EEE76A 		vsub.f32	s13, s13, s15
 262 01d2 3348     		ldr	r0, .L29+24
 263 01d4 83ED000A 		vstr.32	s0, [r3]
 264 01d8 54F8043B 		ldr	r3, [r4], #4	@ float
 265 01dc E6EEA87A 		vfma.f32	s15, s13, s17
 266 01e0 3360     		str	r3, [r6]	@ float
 267 01e2 2E4B     		ldr	r3, .L29+20
 268 01e4 1B78     		ldrb	r3, [r3]	@ zero_extendqisi2
 269 01e6 B0EE670A 		vmov.f32	s0, s15
 270 01ea 1BB1     		cbz	r3, .L10
 271 01ec 27EE067A 		vmul.f32	s14, s14, s12
 272 01f0 86ED007A 		vstr.32	s14, [r6]
 273              	.L10:
 274 01f4 C8ED007A 		vstr.32	s15, [r8]
 275 01f8 FFF7FEFF 		bl	_ZN7daisysp7Flanger8SetDelayEf
 276 01fc 97ED000A 		vldr.32	s0, [r7]
 277 0200 DBED007A 		vldr.32	s15, [fp]
 278 0204 2648     		ldr	r0, .L29+24
 279 0206 77EEC07A 		vsub.f32	s15, s15, s0
 280 020a A7EEA80A 		vfma.f32	s0, s15, s17
 281 020e 87ED000A 		vstr.32	s0, [r7]
 282 0212 FFF7FEFF 		bl	_ZN7daisysp7Flanger11SetLfoDepthEf
 283 0216 2E4B     		ldr	r3, .L29+72
 284 0218 D6ED007A 		vldr.32	s15, [r6]
 285 021c C3ED007A 		vstr.32	s15, [r3]
 286 0220 1D4B     		ldr	r3, .L29+16
 287 0222 1B78     		ldrb	r3, [r3]	@ zero_extendqisi2
 288 0224 002B     		cmp	r3, #0
 289 0226 B3D0     		beq	.L11
 290 0228 B0EE670A 		vmov.f32	s0, s15
 291 022c 1C48     		ldr	r0, .L29+24
 292 022e FFF7FEFF 		bl	_ZN7daisysp7Flanger7ProcessEf
 293 0232 1E4B     		ldr	r3, .L29+36
 294 0234 F7EE007A 		vmov.f32	s15, #1.0e+0
 295 0238 96ED006A 		vldr.32	s12, [r6]
 296 023c 93ED007A 		vldr.32	s14, [r3]
ARM GAS  C:\Users\TT\AppData\Local\Temp\ccVNySDY.s 			page 6


 297 0240 F7EE086A 		vmov.f32	s13, #1.5e+0
 298 0244 224B     		ldr	r3, .L29+72
 299 0246 77EEC77A 		vsub.f32	s15, s15, s14
 300 024a 67EE867A 		vmul.f32	s15, s15, s12
 301 024e E0EE077A 		vfma.f32	s15, s0, s14
 302 0252 67EEA67A 		vmul.f32	s15, s15, s13
 303 0256 C3ED007A 		vstr.32	s15, [r3]
 304 025a 99E7     		b	.L11
 305              	.L28:
 306 025c 1C49     		ldr	r1, .L29+72
 307 025e 1448     		ldr	r0, .L29+40
 308 0260 FFF7FEFF 		bl	_ZN7daisysp4Tone7ProcessERf
 309 0264 1A4B     		ldr	r3, .L29+72
 310 0266 D3ED007A 		vldr.32	s15, [r3]
 311 026a 164B     		ldr	r3, .L29+60
 312 026c E0EE087A 		vfma.f32	s15, s0, s16
 313 0270 C3ED007A 		vstr.32	s15, [r3]
 314 0274 019B     		ldr	r3, [sp, #4]
 315 0276 E9EC017A 		vstmia.32	r9!, {s15}
 316 027a AB42     		cmp	r3, r5
 317 027c 94D1     		bne	.L14
 318              	.L7:
 319 027e 03B0     		add	sp, sp, #12
 320              		@ sp needed
 321 0280 BDEC028B 		vldm	sp!, {d8}
 322 0284 BDE8F08F 		pop	{r4, r5, r6, r7, r8, r9, r10, fp, pc}
 323              	.L30:
 324              		.align	2
 325              	.L29:
 326 0288 00000000 		.word	.LANCHOR0
 327 028c 00000000 		.word	.LANCHOR1
 328 0290 00000000 		.word	.LANCHOR2
 329 0294 6666663F 		.word	1063675494
 330 0298 00000000 		.word	.LANCHOR7
 331 029c 00000000 		.word	.LANCHOR3
 332 02a0 00000000 		.word	.LANCHOR5
 333 02a4 CDCC4C3D 		.word	1028443341
 334 02a8 00000000 		.word	0
 335 02ac 00000000 		.word	.LANCHOR8
 336 02b0 00000000 		.word	.LANCHOR9
 337 02b4 00004843 		.word	1128792064
 338 02b8 00000000 		.word	.LANCHOR10
 339 02bc 00000000 		.word	.LANCHOR12
 340 02c0 00000000 		.word	.LANCHOR14
 341 02c4 00000000 		.word	.LANCHOR16
 342 02c8 17B7D138 		.word	953267991
 343 02cc 00000000 		.word	.LANCHOR11
 344 02d0 00000000 		.word	.LANCHOR15
 345 02d4 00000000 		.word	.LANCHOR4
 346 02d8 00000000 		.word	.LANCHOR6
 347 02dc 00000000 		.word	.LANCHOR13
 349              		.section	.text.startup.main,"ax",%progbits
 350              		.align	1
 351              		.p2align 2,,3
 352              		.global	main
 353              		.syntax unified
 354              		.thumb
ARM GAS  C:\Users\TT\AppData\Local\Temp\ccVNySDY.s 			page 7


 355              		.thumb_func
 356              		.fpu fpv5-d16
 358              	main:
 359              		@ args = 0, pretend = 0, frame = 32
 360              		@ frame_needed = 0, uses_anonymous_args = 0
 361 0000 2DE9F043 		push	{r4, r5, r6, r7, r8, r9, lr}
 362 0004 0021     		movs	r1, #0
 363 0006 4348     		ldr	r0, .L40
 364 0008 434C     		ldr	r4, .L40+4
 365 000a 444F     		ldr	r7, .L40+8
 366 000c DFF84891 		ldr	r9, .L40+68
 367 0010 DFF84881 		ldr	r8, .L40+72
 368 0014 424E     		ldr	r6, .L40+12
 369 0016 2DED028B 		vpush.64	{d8}
 370 001a 89B0     		sub	sp, sp, #36
 371 001c FFF7FEFF 		bl	_ZN5daisy10DaisyPetal4InitEb
 372 0020 3C48     		ldr	r0, .L40
 373 0022 FFF7FEFF 		bl	_ZN5daisy10DaisyPetal15AudioSampleRateEv
 374 0026 3F48     		ldr	r0, .L40+16
 375 0028 B0EE408A 		vmov.f32	s16, s0
 376 002c 01AD     		add	r5, sp, #4
 377 002e FFF7FEFF 		bl	_ZN7daisysp10Compressor4InitEf
 378 0032 DFED3D0A 		vldr.32	s1, .L40+20
 379 0036 9FED3D0A 		vldr.32	s0, .L40+24
 380 003a 0FCC     		ldmia	r4!, {r0, r1, r2, r3}
 381 003c 0FC5     		stmia	r5!, {r0, r1, r2, r3}
 382 003e 94E80700 		ldm	r4, {r0, r1, r2}
 383 0042 85E80700 		stm	r5, {r0, r1, r2}
 384 0046 01A9     		add	r1, sp, #4
 385 0048 0022     		movs	r2, #0
 386 004a 3948     		ldr	r0, .L40+28
 387 004c FFF7FEFF 		bl	_ZN5daisy9Parameter4InitENS_13AnalogControlEffNS0_5CurveE
 388 0050 0023     		movs	r3, #0
 389 0052 384A     		ldr	r2, .L40+32
 390 0054 B0EE480A 		vmov.f32	s0, s16
 391 0058 3748     		ldr	r0, .L40+36
 392 005a 1360     		str	r3, [r2]	@ float
 393 005c 374A     		ldr	r2, .L40+40
 394 005e 1360     		str	r3, [r2]	@ float
 395 0060 374A     		ldr	r2, .L40+44
 396 0062 1360     		str	r3, [r2]	@ float
 397 0064 374A     		ldr	r2, .L40+48
 398 0066 1360     		str	r3, [r2]	@ float
 399 0068 FFF7FEFF 		bl	_ZN7daisysp7Flanger4InitEf
 400 006c 364B     		ldr	r3, .L40+52
 401 006e B0EE480A 		vmov.f32	s0, s16
 402 0072 3648     		ldr	r0, .L40+56
 403 0074 3B60     		str	r3, [r7]	@ float
 404 0076 FFF7FEFF 		bl	_ZN7daisysp4Tone4InitEf
 405 007a A4F16C00 		sub	r0, r4, #108
 406 007e FFF7FEFF 		bl	_ZN5daisy10DaisyPetal8StartAdcEv
 407 0082 A4F16C00 		sub	r0, r4, #108
 408 0086 3249     		ldr	r1, .L40+60
 409 0088 FFF7FEFF 		bl	_ZN5daisy10DaisyPetal10StartAudioEPFvPfS1_jE
 410              	.L36:
 411 008c 0621     		movs	r1, #6
 412 008e 2148     		ldr	r0, .L40
ARM GAS  C:\Users\TT\AppData\Local\Temp\ccVNySDY.s 			page 8


 413 0090 FFF7FEFF 		bl	_ZN5daisy10DaisyPetal7DelayMsEj
 414 0094 1F48     		ldr	r0, .L40
 415 0096 FFF7FEFF 		bl	_ZN5daisy10DaisyPetal9ClearLedsEv
 416 009a 99F80030 		ldrb	r3, [r9]	@ zero_extendqisi2
 417 009e 0021     		movs	r1, #0
 418 00a0 1C48     		ldr	r0, .L40
 419 00a2 00EE103A 		vmov	s0, r3	@ int
 420 00a6 B8EE400A 		vcvt.f32.u32	s0, s0
 421 00aa FFF7FEFF 		bl	_ZN5daisy10DaisyPetal16SetFootswitchLedENS0_13FootswitchLedEf
 422 00ae 98F80030 		ldrb	r3, [r8]	@ zero_extendqisi2
 423 00b2 0121     		movs	r1, #1
 424 00b4 1748     		ldr	r0, .L40
 425 00b6 00EE103A 		vmov	s0, r3	@ int
 426 00ba B8EE400A 		vcvt.f32.u32	s0, s0
 427 00be FFF7FEFF 		bl	_ZN5daisy10DaisyPetal16SetFootswitchLedENS0_13FootswitchLedEf
 428 00c2 B2EE027A 		vmov.f32	s14, #9.0e+0
 429 00c6 D7ED007A 		vldr.32	s15, [r7]
 430 00ca 67EE877A 		vmul.f32	s15, s15, s14
 431 00ce FDEEE77A 		vcvt.s32.f32	s15, s15
 432 00d2 17EE905A 		vmov	r5, s15	@ int
 433 00d6 002D     		cmp	r5, #0
 434 00d8 17DD     		ble	.L32
 435 00da 0024     		movs	r4, #0
 436              	.L35:
 437 00dc 9FED1D1A 		vldr.32	s2, .L40+64
 438 00e0 B7EE000A 		vmov.f32	s0, #1.0e+0
 439 00e4 3378     		ldrb	r3, [r6]	@ zero_extendqisi2
 440 00e6 E1B2     		uxtb	r1, r4
 441 00e8 F0EE410A 		vmov.f32	s1, s2
 442 00ec 0948     		ldr	r0, .L40
 443 00ee 3BB9     		cbnz	r3, .L39
 444 00f0 9FED181A 		vldr.32	s2, .L40+64
 445 00f4 F7EE000A 		vmov.f32	s1, #1.0e+0
 446 00f8 E1B2     		uxtb	r1, r4
 447 00fa 0648     		ldr	r0, .L40
 448 00fc B0EE410A 		vmov.f32	s0, s2
 449              	.L39:
 450 0100 0134     		adds	r4, r4, #1
 451 0102 FFF7FEFF 		bl	_ZN5daisy10DaisyPetal10SetRingLedENS0_7RingLedEfff
 452 0106 A542     		cmp	r5, r4
 453 0108 E8D1     		bne	.L35
 454              	.L32:
 455 010a 0248     		ldr	r0, .L40
 456 010c FFF7FEFF 		bl	_ZN5daisy10DaisyPetal10UpdateLedsEv
 457 0110 BCE7     		b	.L36
 458              	.L41:
 459 0112 00BF     		.align	2
 460              	.L40:
 461 0114 00000000 		.word	.LANCHOR0
 462 0118 5C000000 		.word	.LANCHOR0+92
 463 011c 00000000 		.word	.LANCHOR8
 464 0120 00000000 		.word	.LANCHOR10
 465 0124 00000000 		.word	.LANCHOR1
 466 0128 00002042 		.word	1109393408
 467 012c 9A99993F 		.word	1067030938
 468 0130 00000000 		.word	.LANCHOR2
 469 0134 00000000 		.word	.LANCHOR13
ARM GAS  C:\Users\TT\AppData\Local\Temp\ccVNySDY.s 			page 9


 470 0138 00000000 		.word	.LANCHOR5
 471 013c 00000000 		.word	.LANCHOR4
 472 0140 00000000 		.word	.LANCHOR14
 473 0144 00000000 		.word	.LANCHOR6
 474 0148 CDCC4C3F 		.word	1061997773
 475 014c 00000000 		.word	.LANCHOR9
 476 0150 00000000 		.word	_Z13AudioCallbackPfS_j
 477 0154 00000000 		.word	0
 478 0158 00000000 		.word	.LANCHOR3
 479 015c 00000000 		.word	.LANCHOR7
 481              		.section	.text.startup._GLOBAL__sub_I_flanger,"ax",%progbits
 482              		.align	1
 483              		.p2align 2,,3
 484              		.syntax unified
 485              		.thumb
 486              		.thumb_func
 487              		.fpu fpv5-d16
 489              	_GLOBAL__sub_I_flanger:
 490              		@ args = 0, pretend = 0, frame = 0
 491              		@ frame_needed = 0, uses_anonymous_args = 0
 492 0000 38B5     		push	{r3, r4, r5, lr}
 493 0002 1C4C     		ldr	r4, .L44
 494 0004 1C49     		ldr	r1, .L44+4
 495 0006 2246     		mov	r2, r4
 496 0008 1C48     		ldr	r0, .L44+8
 497 000a FFF7FEFF 		bl	__aeabi_atexit
 498 000e 1C4D     		ldr	r5, .L44+12
 499 0010 0023     		movs	r3, #0
 500 0012 1C49     		ldr	r1, .L44+16
 501 0014 4FF40072 		mov	r2, #512
 502 0018 05F2B640 		addw	r0, r5, #1206
 503 001c 6B61     		str	r3, [r5, #20]
 504 001e 2B62     		str	r3, [r5, #32]
 505 0020 C5F8A034 		str	r3, [r5, #1184]
 506 0024 FFF7FEFF 		bl	memcpy
 507 0028 2246     		mov	r2, r4
 508 002a 1749     		ldr	r1, .L44+20
 509 002c 2846     		mov	r0, r5
 510 002e FFF7FEFF 		bl	__aeabi_atexit
 511 0032 164D     		ldr	r5, .L44+24
 512 0034 2246     		mov	r2, r4
 513 0036 1649     		ldr	r1, .L44+28
 514 0038 1648     		ldr	r0, .L44+32
 515 003a FFF7FEFF 		bl	__aeabi_atexit
 516 003e 2246     		mov	r2, r4
 517 0040 1549     		ldr	r1, .L44+36
 518 0042 1648     		ldr	r0, .L44+40
 519 0044 FFF7FEFF 		bl	__aeabi_atexit
 520 0048 2246     		mov	r2, r4
 521 004a 2946     		mov	r1, r5
 522 004c 1448     		ldr	r0, .L44+44
 523 004e FFF7FEFF 		bl	__aeabi_atexit
 524 0052 2246     		mov	r2, r4
 525 0054 2946     		mov	r1, r5
 526 0056 1348     		ldr	r0, .L44+48
 527 0058 FFF7FEFF 		bl	__aeabi_atexit
 528 005c 2246     		mov	r2, r4
ARM GAS  C:\Users\TT\AppData\Local\Temp\ccVNySDY.s 			page 10


 529 005e 2946     		mov	r1, r5
 530 0060 1148     		ldr	r0, .L44+52
 531 0062 FFF7FEFF 		bl	__aeabi_atexit
 532 0066 2246     		mov	r2, r4
 533 0068 2946     		mov	r1, r5
 534 006a 1048     		ldr	r0, .L44+56
 535 006c BDE83840 		pop	{r3, r4, r5, lr}
 536 0070 FFF7FEBF 		b	__aeabi_atexit
 537              	.L45:
 538              		.align	2
 539              	.L44:
 540 0074 00000000 		.word	__dso_handle
 541 0078 00000000 		.word	_ZN7daisysp7FlangerD1Ev
 542 007c 00000000 		.word	.LANCHOR5
 543 0080 00000000 		.word	.LANCHOR0
 544 0084 00000000 		.word	.LANCHOR17
 545 0088 00000000 		.word	_ZN5daisy10DaisyPetalD1Ev
 546 008c 00000000 		.word	_ZN5daisy9ParameterD1Ev
 547 0090 00000000 		.word	_ZN7daisysp4ToneD1Ev
 548 0094 00000000 		.word	.LANCHOR9
 549 0098 00000000 		.word	_ZN7daisysp10CompressorD1Ev
 550 009c 00000000 		.word	.LANCHOR1
 551 00a0 00000000 		.word	.LANCHOR18
 552 00a4 00000000 		.word	.LANCHOR2
 553 00a8 00000000 		.word	.LANCHOR19
 554 00ac 00000000 		.word	.LANCHOR20
 556              		.section	.init_array,"aw",%init_array
 557              		.align	2
 558 0000 00000000 		.word	_GLOBAL__sub_I_flanger(target1)
 559              		.global	tone_out
 560              		.global	tone_freq
 561              		.global	tone_ON
 562              		.global	flanger_out
 563              		.global	wet_f
 564              		.global	lfo
 565              		.global	lfotarget
 566              		.global	del
 567              		.global	deltarget
 568              		.global	flanger_ON
 569              		.global	comp_out
 570              		.global	comp_sig
 571              		.global	compressor_ON
 572              		.global	releaseParam
 573              		.global	attackParam
 574              		.global	ratioParam
 575              		.global	threshParam
 576              		.global	comp
 577              		.global	tone
 578              		.global	petal
 579              		.global	flanger
 580              		.section	.rodata
 581              		.align	2
 582              		.set	.LANCHOR17,. + 0
 583              	.LC0:
 584 0000 0000     		.short	0
 585 0002 0100     		.short	1
 586 0004 0100     		.short	1
ARM GAS  C:\Users\TT\AppData\Local\Temp\ccVNySDY.s 			page 11


 587 0006 0100     		.short	1
 588 0008 0100     		.short	1
 589 000a 0100     		.short	1
 590 000c 0100     		.short	1
 591 000e 0100     		.short	1
 592 0010 0100     		.short	1
 593 0012 0100     		.short	1
 594 0014 0100     		.short	1
 595 0016 0100     		.short	1
 596 0018 0200     		.short	2
 597 001a 0200     		.short	2
 598 001c 0200     		.short	2
 599 001e 0200     		.short	2
 600 0020 0200     		.short	2
 601 0022 0200     		.short	2
 602 0024 0200     		.short	2
 603 0026 0300     		.short	3
 604 0028 0300     		.short	3
 605 002a 0400     		.short	4
 606 002c 0400     		.short	4
 607 002e 0500     		.short	5
 608 0030 0500     		.short	5
 609 0032 0600     		.short	6
 610 0034 0700     		.short	7
 611 0036 0800     		.short	8
 612 0038 0800     		.short	8
 613 003a 0900     		.short	9
 614 003c 0A00     		.short	10
 615 003e 0B00     		.short	11
 616 0040 0C00     		.short	12
 617 0042 0D00     		.short	13
 618 0044 0F00     		.short	15
 619 0046 1000     		.short	16
 620 0048 1100     		.short	17
 621 004a 1200     		.short	18
 622 004c 1400     		.short	20
 623 004e 1500     		.short	21
 624 0050 1700     		.short	23
 625 0052 1900     		.short	25
 626 0054 1A00     		.short	26
 627 0056 1C00     		.short	28
 628 0058 1E00     		.short	30
 629 005a 2000     		.short	32
 630 005c 2200     		.short	34
 631 005e 2400     		.short	36
 632 0060 2600     		.short	38
 633 0062 2800     		.short	40
 634 0064 2B00     		.short	43
 635 0066 2D00     		.short	45
 636 0068 3000     		.short	48
 637 006a 3200     		.short	50
 638 006c 3500     		.short	53
 639 006e 3800     		.short	56
 640 0070 3B00     		.short	59
 641 0072 3E00     		.short	62
 642 0074 4100     		.short	65
 643 0076 4400     		.short	68
ARM GAS  C:\Users\TT\AppData\Local\Temp\ccVNySDY.s 			page 12


 644 0078 4700     		.short	71
 645 007a 4B00     		.short	75
 646 007c 4E00     		.short	78
 647 007e 5200     		.short	82
 648 0080 5500     		.short	85
 649 0082 5900     		.short	89
 650 0084 5D00     		.short	93
 651 0086 6100     		.short	97
 652 0088 6500     		.short	101
 653 008a 6900     		.short	105
 654 008c 6E00     		.short	110
 655 008e 7200     		.short	114
 656 0090 7700     		.short	119
 657 0092 7B00     		.short	123
 658 0094 8000     		.short	128
 659 0096 8500     		.short	133
 660 0098 8A00     		.short	138
 661 009a 8F00     		.short	143
 662 009c 9500     		.short	149
 663 009e 9A00     		.short	154
 664 00a0 9F00     		.short	159
 665 00a2 A500     		.short	165
 666 00a4 AB00     		.short	171
 667 00a6 B100     		.short	177
 668 00a8 B700     		.short	183
 669 00aa BD00     		.short	189
 670 00ac C300     		.short	195
 671 00ae CA00     		.short	202
 672 00b0 D000     		.short	208
 673 00b2 D700     		.short	215
 674 00b4 DE00     		.short	222
 675 00b6 E500     		.short	229
 676 00b8 EC00     		.short	236
 677 00ba F300     		.short	243
 678 00bc FA00     		.short	250
 679 00be 0201     		.short	258
 680 00c0 0A01     		.short	266
 681 00c2 1101     		.short	273
 682 00c4 1901     		.short	281
 683 00c6 2201     		.short	290
 684 00c8 2A01     		.short	298
 685 00ca 3201     		.short	306
 686 00cc 3B01     		.short	315
 687 00ce 4401     		.short	324
 688 00d0 4C01     		.short	332
 689 00d2 5501     		.short	341
 690 00d4 5F01     		.short	351
 691 00d6 6801     		.short	360
 692 00d8 7101     		.short	369
 693 00da 7B01     		.short	379
 694 00dc 8501     		.short	389
 695 00de 8F01     		.short	399
 696 00e0 9901     		.short	409
 697 00e2 A301     		.short	419
 698 00e4 AE01     		.short	430
 699 00e6 B801     		.short	440
 700 00e8 C301     		.short	451
ARM GAS  C:\Users\TT\AppData\Local\Temp\ccVNySDY.s 			page 13


 701 00ea CE01     		.short	462
 702 00ec D901     		.short	473
 703 00ee E501     		.short	485
 704 00f0 F001     		.short	496
 705 00f2 FC01     		.short	508
 706 00f4 0802     		.short	520
 707 00f6 1402     		.short	532
 708 00f8 2002     		.short	544
 709 00fa 2C02     		.short	556
 710 00fc 3902     		.short	569
 711 00fe 4602     		.short	582
 712 0100 5202     		.short	594
 713 0102 6002     		.short	608
 714 0104 6D02     		.short	621
 715 0106 7A02     		.short	634
 716 0108 8802     		.short	648
 717 010a 9602     		.short	662
 718 010c A402     		.short	676
 719 010e B202     		.short	690
 720 0110 C002     		.short	704
 721 0112 CF02     		.short	719
 722 0114 DE02     		.short	734
 723 0116 ED02     		.short	749
 724 0118 FC02     		.short	764
 725 011a 0B03     		.short	779
 726 011c 1B03     		.short	795
 727 011e 2B03     		.short	811
 728 0120 3B03     		.short	827
 729 0122 4B03     		.short	843
 730 0124 5B03     		.short	859
 731 0126 6C03     		.short	876
 732 0128 7D03     		.short	893
 733 012a 8E03     		.short	910
 734 012c 9F03     		.short	927
 735 012e B003     		.short	944
 736 0130 C203     		.short	962
 737 0132 D403     		.short	980
 738 0134 E603     		.short	998
 739 0136 F803     		.short	1016
 740 0138 0A04     		.short	1034
 741 013a 1D04     		.short	1053
 742 013c 3004     		.short	1072
 743 013e 4304     		.short	1091
 744 0140 5604     		.short	1110
 745 0142 6A04     		.short	1130
 746 0144 7E04     		.short	1150
 747 0146 9204     		.short	1170
 748 0148 A604     		.short	1190
 749 014a BA04     		.short	1210
 750 014c CF04     		.short	1231
 751 014e E404     		.short	1252
 752 0150 F904     		.short	1273
 753 0152 0E05     		.short	1294
 754 0154 2405     		.short	1316
 755 0156 3A05     		.short	1338
 756 0158 5005     		.short	1360
 757 015a 6605     		.short	1382
ARM GAS  C:\Users\TT\AppData\Local\Temp\ccVNySDY.s 			page 14


 758 015c 7C05     		.short	1404
 759 015e 9305     		.short	1427
 760 0160 AA05     		.short	1450
 761 0162 C105     		.short	1473
 762 0164 D905     		.short	1497
 763 0166 F005     		.short	1520
 764 0168 0806     		.short	1544
 765 016a 2006     		.short	1568
 766 016c 3906     		.short	1593
 767 016e 5106     		.short	1617
 768 0170 6A06     		.short	1642
 769 0172 8306     		.short	1667
 770 0174 9D06     		.short	1693
 771 0176 B606     		.short	1718
 772 0178 D006     		.short	1744
 773 017a EA06     		.short	1770
 774 017c 0507     		.short	1797
 775 017e 1F07     		.short	1823
 776 0180 3A07     		.short	1850
 777 0182 5507     		.short	1877
 778 0184 7107     		.short	1905
 779 0186 8C07     		.short	1932
 780 0188 A807     		.short	1960
 781 018a C407     		.short	1988
 782 018c E107     		.short	2017
 783 018e FD07     		.short	2045
 784 0190 1A08     		.short	2074
 785 0192 3708     		.short	2103
 786 0194 5508     		.short	2133
 787 0196 7208     		.short	2162
 788 0198 9008     		.short	2192
 789 019a AF08     		.short	2223
 790 019c CD08     		.short	2253
 791 019e EC08     		.short	2284
 792 01a0 0B09     		.short	2315
 793 01a2 2A09     		.short	2346
 794 01a4 4A09     		.short	2378
 795 01a6 6A09     		.short	2410
 796 01a8 8A09     		.short	2442
 797 01aa AA09     		.short	2474
 798 01ac CB09     		.short	2507
 799 01ae EC09     		.short	2540
 800 01b0 0D0A     		.short	2573
 801 01b2 2E0A     		.short	2606
 802 01b4 500A     		.short	2640
 803 01b6 720A     		.short	2674
 804 01b8 940A     		.short	2708
 805 01ba B70A     		.short	2743
 806 01bc DA0A     		.short	2778
 807 01be FD0A     		.short	2813
 808 01c0 210B     		.short	2849
 809 01c2 440B     		.short	2884
 810 01c4 680B     		.short	2920
 811 01c6 8D0B     		.short	2957
 812 01c8 B10B     		.short	2993
 813 01ca D60B     		.short	3030
 814 01cc FB0B     		.short	3067
ARM GAS  C:\Users\TT\AppData\Local\Temp\ccVNySDY.s 			page 15


 815 01ce 210C     		.short	3105
 816 01d0 470C     		.short	3143
 817 01d2 6D0C     		.short	3181
 818 01d4 930C     		.short	3219
 819 01d6 BA0C     		.short	3258
 820 01d8 E10C     		.short	3297
 821 01da 080D     		.short	3336
 822 01dc 300D     		.short	3376
 823 01de 580D     		.short	3416
 824 01e0 800D     		.short	3456
 825 01e2 A80D     		.short	3496
 826 01e4 D10D     		.short	3537
 827 01e6 FA0D     		.short	3578
 828 01e8 230E     		.short	3619
 829 01ea 4D0E     		.short	3661
 830 01ec 770E     		.short	3703
 831 01ee A10E     		.short	3745
 832 01f0 CC0E     		.short	3788
 833 01f2 F70E     		.short	3831
 834 01f4 220F     		.short	3874
 835 01f6 4E0F     		.short	3918
 836 01f8 7A0F     		.short	3962
 837 01fa A60F     		.short	4006
 838 01fc D20F     		.short	4050
 839 01fe FF0F     		.short	4095
 840              		.section	.bss.attackParam,"aw",%nobits
 841              		.align	2
 842              		.set	.LANCHOR19,. + 0
 845              	attackParam:
 846 0000 00000000 		.space	52
 846      00000000 
 846      00000000 
 846      00000000 
 846      00000000 
 847              		.section	.bss.comp,"aw",%nobits
 848              		.align	2
 849              		.set	.LANCHOR1,. + 0
 852              	comp:
 853 0000 00000000 		.space	64
 853      00000000 
 853      00000000 
 853      00000000 
 853      00000000 
 854              		.section	.bss.comp_out,"aw",%nobits
 855              		.align	2
 856              		.set	.LANCHOR12,. + 0
 859              	comp_out:
 860 0000 00000000 		.space	4
 861              		.section	.bss.comp_sig,"aw",%nobits
 862              		.align	2
 863              		.set	.LANCHOR11,. + 0
 866              	comp_sig:
 867 0000 00000000 		.space	4
 868              		.section	.bss.del,"aw",%nobits
 869              		.align	2
 870              		.set	.LANCHOR13,. + 0
 873              	del:
ARM GAS  C:\Users\TT\AppData\Local\Temp\ccVNySDY.s 			page 16


 874 0000 00000000 		.space	4
 875              		.section	.bss.deltarget,"aw",%nobits
 876              		.align	2
 877              		.set	.LANCHOR4,. + 0
 880              	deltarget:
 881 0000 00000000 		.space	4
 882              		.section	.bss.flanger,"aw",%nobits
 883              		.align	2
 884              		.set	.LANCHOR5,. + 0
 887              	flanger:
 888 0000 00000000 		.space	3876
 888      00000000 
 888      00000000 
 888      00000000 
 888      00000000 
 889              		.section	.bss.flanger_out,"aw",%nobits
 890              		.align	2
 891              		.set	.LANCHOR15,. + 0
 894              	flanger_out:
 895 0000 00000000 		.space	4
 896              		.section	.bss.lfo,"aw",%nobits
 897              		.align	2
 898              		.set	.LANCHOR14,. + 0
 901              	lfo:
 902 0000 00000000 		.space	4
 903              		.section	.bss.lfotarget,"aw",%nobits
 904              		.align	2
 905              		.set	.LANCHOR6,. + 0
 908              	lfotarget:
 909 0000 00000000 		.space	4
 910              		.section	.bss.petal,"aw",%nobits
 911              		.align	2
 912              		.set	.LANCHOR0,. + 0
 915              	petal:
 916 0000 00000000 		.space	1720
 916      00000000 
 916      00000000 
 916      00000000 
 916      00000000 
 917              		.section	.bss.ratioParam,"aw",%nobits
 918              		.align	2
 919              		.set	.LANCHOR2,. + 0
 922              	ratioParam:
 923 0000 00000000 		.space	52
 923      00000000 
 923      00000000 
 923      00000000 
 923      00000000 
 924              		.section	.bss.releaseParam,"aw",%nobits
 925              		.align	2
 926              		.set	.LANCHOR20,. + 0
 929              	releaseParam:
 930 0000 00000000 		.space	52
 930      00000000 
 930      00000000 
 930      00000000 
 930      00000000 
ARM GAS  C:\Users\TT\AppData\Local\Temp\ccVNySDY.s 			page 17


 931              		.section	.bss.threshParam,"aw",%nobits
 932              		.align	2
 933              		.set	.LANCHOR18,. + 0
 936              	threshParam:
 937 0000 00000000 		.space	52
 937      00000000 
 937      00000000 
 937      00000000 
 937      00000000 
 938              		.section	.bss.tone,"aw",%nobits
 939              		.align	2
 940              		.set	.LANCHOR9,. + 0
 943              	tone:
 944 0000 00000000 		.space	28
 944      00000000 
 944      00000000 
 944      00000000 
 944      00000000 
 945              		.section	.bss.tone_ON,"aw",%nobits
 946              		.set	.LANCHOR10,. + 0
 949              	tone_ON:
 950 0000 00       		.space	1
 951              		.section	.bss.tone_freq,"aw",%nobits
 952              		.align	2
 955              	tone_freq:
 956 0000 00000000 		.space	4
 957              		.section	.bss.tone_out,"aw",%nobits
 958              		.align	2
 959              		.set	.LANCHOR16,. + 0
 962              	tone_out:
 963 0000 00000000 		.space	4
 964              		.section	.bss.wet_f,"aw",%nobits
 965              		.align	2
 966              		.set	.LANCHOR8,. + 0
 969              	wet_f:
 970 0000 00000000 		.space	4
 971              		.section	.data.compressor_ON,"aw"
 972              		.set	.LANCHOR3,. + 0
 975              	compressor_ON:
 976 0000 01       		.byte	1
 977              		.section	.data.flanger_ON,"aw"
 978              		.set	.LANCHOR7,. + 0
 981              	flanger_ON:
 982 0000 01       		.byte	1
 983              		.hidden	__dso_handle
 984              		.ident	"GCC: (GNU Arm Embedded Toolchain 10-2020-q4-major) 10.2.1 20201103 (release)"
ARM GAS  C:\Users\TT\AppData\Local\Temp\ccVNySDY.s 			page 18


DEFINED SYMBOLS
                            *ABS*:00000000 bass_stompbox.cpp
C:\Users\TT\AppData\Local\Temp\ccVNySDY.s:15     .text._ZN5daisy9ParameterD2Ev:00000000 $t
C:\Users\TT\AppData\Local\Temp\ccVNySDY.s:24     .text._ZN5daisy9ParameterD2Ev:00000000 _ZN5daisy9ParameterD2Ev
C:\Users\TT\AppData\Local\Temp\ccVNySDY.s:24     .text._ZN5daisy9ParameterD2Ev:00000000 _ZN5daisy9ParameterD1Ev
C:\Users\TT\AppData\Local\Temp\ccVNySDY.s:33     .text._ZN5daisy10DaisyPetalD2Ev:00000000 $t
C:\Users\TT\AppData\Local\Temp\ccVNySDY.s:41     .text._ZN5daisy10DaisyPetalD2Ev:00000000 _ZN5daisy10DaisyPetalD2Ev
C:\Users\TT\AppData\Local\Temp\ccVNySDY.s:41     .text._ZN5daisy10DaisyPetalD2Ev:00000000 _ZN5daisy10DaisyPetalD1Ev
C:\Users\TT\AppData\Local\Temp\ccVNySDY.s:50     .text._ZN7daisysp10CompressorD2Ev:00000000 $t
C:\Users\TT\AppData\Local\Temp\ccVNySDY.s:58     .text._ZN7daisysp10CompressorD2Ev:00000000 _ZN7daisysp10CompressorD2Ev
C:\Users\TT\AppData\Local\Temp\ccVNySDY.s:58     .text._ZN7daisysp10CompressorD2Ev:00000000 _ZN7daisysp10CompressorD1Ev
C:\Users\TT\AppData\Local\Temp\ccVNySDY.s:67     .text._ZN7daisysp4ToneD2Ev:00000000 $t
C:\Users\TT\AppData\Local\Temp\ccVNySDY.s:75     .text._ZN7daisysp4ToneD2Ev:00000000 _ZN7daisysp4ToneD2Ev
C:\Users\TT\AppData\Local\Temp\ccVNySDY.s:75     .text._ZN7daisysp4ToneD2Ev:00000000 _ZN7daisysp4ToneD1Ev
C:\Users\TT\AppData\Local\Temp\ccVNySDY.s:84     .text._ZN7daisysp7FlangerD2Ev:00000000 $t
C:\Users\TT\AppData\Local\Temp\ccVNySDY.s:92     .text._ZN7daisysp7FlangerD2Ev:00000000 _ZN7daisysp7FlangerD2Ev
C:\Users\TT\AppData\Local\Temp\ccVNySDY.s:92     .text._ZN7daisysp7FlangerD2Ev:00000000 _ZN7daisysp7FlangerD1Ev
C:\Users\TT\AppData\Local\Temp\ccVNySDY.s:101    .text._Z13AudioCallbackPfS_j:00000000 $t
C:\Users\TT\AppData\Local\Temp\ccVNySDY.s:109    .text._Z13AudioCallbackPfS_j:00000000 _Z13AudioCallbackPfS_j
C:\Users\TT\AppData\Local\Temp\ccVNySDY.s:326    .text._Z13AudioCallbackPfS_j:00000288 $d
C:\Users\TT\AppData\Local\Temp\ccVNySDY.s:350    .text.startup.main:00000000 $t
C:\Users\TT\AppData\Local\Temp\ccVNySDY.s:358    .text.startup.main:00000000 main
C:\Users\TT\AppData\Local\Temp\ccVNySDY.s:461    .text.startup.main:00000114 $d
C:\Users\TT\AppData\Local\Temp\ccVNySDY.s:482    .text.startup._GLOBAL__sub_I_flanger:00000000 $t
C:\Users\TT\AppData\Local\Temp\ccVNySDY.s:489    .text.startup._GLOBAL__sub_I_flanger:00000000 _GLOBAL__sub_I_flanger
C:\Users\TT\AppData\Local\Temp\ccVNySDY.s:540    .text.startup._GLOBAL__sub_I_flanger:00000074 $d
C:\Users\TT\AppData\Local\Temp\ccVNySDY.s:557    .init_array:00000000 $d
C:\Users\TT\AppData\Local\Temp\ccVNySDY.s:962    .bss.tone_out:00000000 tone_out
C:\Users\TT\AppData\Local\Temp\ccVNySDY.s:955    .bss.tone_freq:00000000 tone_freq
C:\Users\TT\AppData\Local\Temp\ccVNySDY.s:949    .bss.tone_ON:00000000 tone_ON
C:\Users\TT\AppData\Local\Temp\ccVNySDY.s:894    .bss.flanger_out:00000000 flanger_out
C:\Users\TT\AppData\Local\Temp\ccVNySDY.s:969    .bss.wet_f:00000000 wet_f
C:\Users\TT\AppData\Local\Temp\ccVNySDY.s:901    .bss.lfo:00000000 lfo
C:\Users\TT\AppData\Local\Temp\ccVNySDY.s:908    .bss.lfotarget:00000000 lfotarget
C:\Users\TT\AppData\Local\Temp\ccVNySDY.s:873    .bss.del:00000000 del
C:\Users\TT\AppData\Local\Temp\ccVNySDY.s:880    .bss.deltarget:00000000 deltarget
C:\Users\TT\AppData\Local\Temp\ccVNySDY.s:981    .data.flanger_ON:00000000 flanger_ON
C:\Users\TT\AppData\Local\Temp\ccVNySDY.s:859    .bss.comp_out:00000000 comp_out
C:\Users\TT\AppData\Local\Temp\ccVNySDY.s:866    .bss.comp_sig:00000000 comp_sig
C:\Users\TT\AppData\Local\Temp\ccVNySDY.s:975    .data.compressor_ON:00000000 compressor_ON
C:\Users\TT\AppData\Local\Temp\ccVNySDY.s:929    .bss.releaseParam:00000000 releaseParam
C:\Users\TT\AppData\Local\Temp\ccVNySDY.s:845    .bss.attackParam:00000000 attackParam
C:\Users\TT\AppData\Local\Temp\ccVNySDY.s:922    .bss.ratioParam:00000000 ratioParam
C:\Users\TT\AppData\Local\Temp\ccVNySDY.s:936    .bss.threshParam:00000000 threshParam
C:\Users\TT\AppData\Local\Temp\ccVNySDY.s:852    .bss.comp:00000000 comp
C:\Users\TT\AppData\Local\Temp\ccVNySDY.s:943    .bss.tone:00000000 tone
C:\Users\TT\AppData\Local\Temp\ccVNySDY.s:915    .bss.petal:00000000 petal
C:\Users\TT\AppData\Local\Temp\ccVNySDY.s:887    .bss.flanger:00000000 flanger
C:\Users\TT\AppData\Local\Temp\ccVNySDY.s:581    .rodata:00000000 $d
C:\Users\TT\AppData\Local\Temp\ccVNySDY.s:841    .bss.attackParam:00000000 $d
C:\Users\TT\AppData\Local\Temp\ccVNySDY.s:848    .bss.comp:00000000 $d
C:\Users\TT\AppData\Local\Temp\ccVNySDY.s:855    .bss.comp_out:00000000 $d
C:\Users\TT\AppData\Local\Temp\ccVNySDY.s:862    .bss.comp_sig:00000000 $d
C:\Users\TT\AppData\Local\Temp\ccVNySDY.s:869    .bss.del:00000000 $d
C:\Users\TT\AppData\Local\Temp\ccVNySDY.s:876    .bss.deltarget:00000000 $d
C:\Users\TT\AppData\Local\Temp\ccVNySDY.s:883    .bss.flanger:00000000 $d
C:\Users\TT\AppData\Local\Temp\ccVNySDY.s:890    .bss.flanger_out:00000000 $d
ARM GAS  C:\Users\TT\AppData\Local\Temp\ccVNySDY.s 			page 19


C:\Users\TT\AppData\Local\Temp\ccVNySDY.s:897    .bss.lfo:00000000 $d
C:\Users\TT\AppData\Local\Temp\ccVNySDY.s:904    .bss.lfotarget:00000000 $d
C:\Users\TT\AppData\Local\Temp\ccVNySDY.s:911    .bss.petal:00000000 $d
C:\Users\TT\AppData\Local\Temp\ccVNySDY.s:918    .bss.ratioParam:00000000 $d
C:\Users\TT\AppData\Local\Temp\ccVNySDY.s:925    .bss.releaseParam:00000000 $d
C:\Users\TT\AppData\Local\Temp\ccVNySDY.s:932    .bss.threshParam:00000000 $d
C:\Users\TT\AppData\Local\Temp\ccVNySDY.s:939    .bss.tone:00000000 $d
C:\Users\TT\AppData\Local\Temp\ccVNySDY.s:950    .bss.tone_ON:00000000 $d
C:\Users\TT\AppData\Local\Temp\ccVNySDY.s:952    .bss.tone_freq:00000000 $d
C:\Users\TT\AppData\Local\Temp\ccVNySDY.s:958    .bss.tone_out:00000000 $d
C:\Users\TT\AppData\Local\Temp\ccVNySDY.s:965    .bss.wet_f:00000000 $d
                           .group:00000000 _ZN5daisy9ParameterD5Ev
                           .group:00000000 _ZN5daisy10DaisyPetalD5Ev
                           .group:00000000 _ZN7daisysp10CompressorD5Ev
                           .group:00000000 _ZN7daisysp4ToneD5Ev
                           .group:00000000 _ZN7daisysp7FlangerD5Ev

UNDEFINED SYMBOLS
_ZN5daisy10DaisyPetal21ProcessAnalogControlsEv
_ZN5daisy10DaisyPetal22ProcessDigitalControlsEv
_ZN5daisy9Parameter7ProcessEv
expf
_ZN5daisy13AnalogControl7ProcessEv
_ZN7daisysp7Flanger11SetFeedbackEf
_ZN7daisysp7Flanger10SetLfoFreqEf
_ZN7daisysp4Tone21CalculateCoefficientsEv
_ZN7daisysp10Compressor7ProcessEf
_ZN7daisysp7Flanger8SetDelayEf
_ZN7daisysp7Flanger11SetLfoDepthEf
_ZN7daisysp7Flanger7ProcessEf
_ZN7daisysp4Tone7ProcessERf
_ZN5daisy10DaisyPetal4InitEb
_ZN5daisy10DaisyPetal15AudioSampleRateEv
_ZN7daisysp10Compressor4InitEf
_ZN5daisy9Parameter4InitENS_13AnalogControlEffNS0_5CurveE
_ZN7daisysp7Flanger4InitEf
_ZN7daisysp4Tone4InitEf
_ZN5daisy10DaisyPetal8StartAdcEv
_ZN5daisy10DaisyPetal10StartAudioEPFvPfS1_jE
_ZN5daisy10DaisyPetal7DelayMsEj
_ZN5daisy10DaisyPetal9ClearLedsEv
_ZN5daisy10DaisyPetal16SetFootswitchLedENS0_13FootswitchLedEf
_ZN5daisy10DaisyPetal10SetRingLedENS0_7RingLedEfff
_ZN5daisy10DaisyPetal10UpdateLedsEv
__aeabi_atexit
memcpy
__dso_handle
