ARM GAS  C:\Users\TT\AppData\Local\Temp\ccQ2NNqc.s 			page 1


   1              		.cpu cortex-m7
   2              		.eabi_attribute 28, 1
   3              		.eabi_attribute 20, 1
   4              		.eabi_attribute 21, 1
   5              		.eabi_attribute 23, 3
   6              		.eabi_attribute 24, 1
   7              		.eabi_attribute 25, 1
   8              		.eabi_attribute 26, 1
   9              		.eabi_attribute 30, 2
  10              		.eabi_attribute 34, 1
  11              		.eabi_attribute 18, 4
  12              		.file	"bass_stompbox.cpp"
  13              		.text
  14              	.Ltext0:
  15              		.cfi_sections	.debug_frame
  16              		.section	.text._ZN5daisy9DaisySeedD2Ev,"axG",%progbits,_ZN5daisy9DaisySeedD5Ev,comdat
  17              		.align	1
  18              		.p2align 2,,3
  19              		.weak	_ZN5daisy9DaisySeedD2Ev
  20              		.arch armv7e-m
  21              		.syntax unified
  22              		.thumb
  23              		.thumb_func
  24              		.fpu fpv5-d16
  26              	_ZN5daisy9DaisySeedD2Ev:
  27              	.LVL0:
  28              	.LFB2022:
  29              		.file 1 "../../libdaisy/src/daisy_seed.h"
   1:../../libdaisy/src/daisy_seed.h **** #pragma once
   2:../../libdaisy/src/daisy_seed.h **** #ifndef DSY_SEED_H
   3:../../libdaisy/src/daisy_seed.h **** #define DSY_SEED_H
   4:../../libdaisy/src/daisy_seed.h **** 
   5:../../libdaisy/src/daisy_seed.h **** #include "daisy.h"
   6:../../libdaisy/src/daisy_seed.h **** 
   7:../../libdaisy/src/daisy_seed.h **** //Uncomment this out if you're still using the rev2 hardware
   8:../../libdaisy/src/daisy_seed.h **** //#define SEED_REV2
   9:../../libdaisy/src/daisy_seed.h **** 
  10:../../libdaisy/src/daisy_seed.h **** namespace daisy
  11:../../libdaisy/src/daisy_seed.h **** {
  12:../../libdaisy/src/daisy_seed.h **** /**
  13:../../libdaisy/src/daisy_seed.h ****    @brief This is the higher-level interface for the Daisy board. \n 
  14:../../libdaisy/src/daisy_seed.h ****     All basic peripheral configuration/initialization is setup here. \n
  15:../../libdaisy/src/daisy_seed.h **** 
  16:../../libdaisy/src/daisy_seed.h ****    @ingroup boards
  17:../../libdaisy/src/daisy_seed.h **** */
  18:../../libdaisy/src/daisy_seed.h **** class DaisySeed
  19:../../libdaisy/src/daisy_seed.h **** {
  20:../../libdaisy/src/daisy_seed.h ****   public:
  21:../../libdaisy/src/daisy_seed.h ****     DaisySeed() {}
  22:../../libdaisy/src/daisy_seed.h ****     ~DaisySeed() {}
  30              		.loc 1 22 5 view -0
  31              		.cfi_startproc
  32              		@ args = 0, pretend = 0, frame = 0
  33              		@ frame_needed = 0, uses_anonymous_args = 0
  34              		@ link register save eliminated.
  35              	.LBB232:
  36              	.LBI232:
ARM GAS  C:\Users\TT\AppData\Local\Temp\ccQ2NNqc.s 			page 2


  37              		.file 2 "../../libdaisy/src/sys/system.h"
   1:../../libdaisy/src/sys/system.h **** #ifndef DSY_SYSTEM_H
   2:../../libdaisy/src/sys/system.h **** #define DSY_SYSTEM_H
   3:../../libdaisy/src/sys/system.h **** 
   4:../../libdaisy/src/sys/system.h **** #ifndef UNIT_TEST // for unit tests, a dummy implementation is provided below
   5:../../libdaisy/src/sys/system.h **** 
   6:../../libdaisy/src/sys/system.h **** #include <cstdint>
   7:../../libdaisy/src/sys/system.h **** #include "per/tim.h"
   8:../../libdaisy/src/sys/system.h **** 
   9:../../libdaisy/src/sys/system.h **** namespace daisy
  10:../../libdaisy/src/sys/system.h **** {
  11:../../libdaisy/src/sys/system.h **** /** A handle for interacting with the Core System. 
  12:../../libdaisy/src/sys/system.h ****  ** This includes the Clock tree, MPU, global DMA initialization,
  13:../../libdaisy/src/sys/system.h ****  ** cache handling, and any other necessary global initiailzation
  14:../../libdaisy/src/sys/system.h ****  **
  15:../../libdaisy/src/sys/system.h ****  ** @author shensley
  16:../../libdaisy/src/sys/system.h ****  ** @addtogroup system
  17:../../libdaisy/src/sys/system.h ****  */
  18:../../libdaisy/src/sys/system.h **** class System
  19:../../libdaisy/src/sys/system.h **** {
  20:../../libdaisy/src/sys/system.h ****   public:
  21:../../libdaisy/src/sys/system.h ****     /** Contains settings for initializing the System */
  22:../../libdaisy/src/sys/system.h ****     struct Config
  23:../../libdaisy/src/sys/system.h ****     {
  24:../../libdaisy/src/sys/system.h ****         /** Specifies the system clock frequency that feeds APB/AHB clocks, etc. */
  25:../../libdaisy/src/sys/system.h ****         enum class SysClkFreq
  26:../../libdaisy/src/sys/system.h ****         {
  27:../../libdaisy/src/sys/system.h ****             FREQ_400MHZ,
  28:../../libdaisy/src/sys/system.h ****             FREQ_480MHZ,
  29:../../libdaisy/src/sys/system.h ****         };
  30:../../libdaisy/src/sys/system.h **** 
  31:../../libdaisy/src/sys/system.h ****         /** Method to call on the struct to set to defaults
  32:../../libdaisy/src/sys/system.h ****          ** CPU Freq set to 400MHz
  33:../../libdaisy/src/sys/system.h ****          ** Cache Enabled 
  34:../../libdaisy/src/sys/system.h ****          ** */
  35:../../libdaisy/src/sys/system.h ****         void Defaults()
  36:../../libdaisy/src/sys/system.h ****         {
  37:../../libdaisy/src/sys/system.h ****             cpu_freq   = SysClkFreq::FREQ_400MHZ;
  38:../../libdaisy/src/sys/system.h ****             use_dcache = true;
  39:../../libdaisy/src/sys/system.h ****             use_icache = true;
  40:../../libdaisy/src/sys/system.h ****         }
  41:../../libdaisy/src/sys/system.h **** 
  42:../../libdaisy/src/sys/system.h ****         /** Method to call on the struct to set to boost mode:
  43:../../libdaisy/src/sys/system.h ****          ** CPU Freq set to 480MHz
  44:../../libdaisy/src/sys/system.h ****          ** Cache Enabled 
  45:../../libdaisy/src/sys/system.h ****          ** */
  46:../../libdaisy/src/sys/system.h ****         void Boost()
  47:../../libdaisy/src/sys/system.h ****         {
  48:../../libdaisy/src/sys/system.h ****             cpu_freq   = SysClkFreq::FREQ_480MHZ;
  49:../../libdaisy/src/sys/system.h ****             use_dcache = true;
  50:../../libdaisy/src/sys/system.h ****             use_icache = true;
  51:../../libdaisy/src/sys/system.h ****         }
  52:../../libdaisy/src/sys/system.h **** 
  53:../../libdaisy/src/sys/system.h ****         SysClkFreq cpu_freq;
  54:../../libdaisy/src/sys/system.h ****         bool       use_dcache;
  55:../../libdaisy/src/sys/system.h ****         bool       use_icache;
  56:../../libdaisy/src/sys/system.h ****     };
ARM GAS  C:\Users\TT\AppData\Local\Temp\ccQ2NNqc.s 			page 3


  57:../../libdaisy/src/sys/system.h **** 
  58:../../libdaisy/src/sys/system.h ****     /** A simple way to represent where the program is executing from
  59:../../libdaisy/src/sys/system.h ****      * 
  60:../../libdaisy/src/sys/system.h ****      */
  61:../../libdaisy/src/sys/system.h ****     enum ProgramMemory
  62:../../libdaisy/src/sys/system.h ****     {
  63:../../libdaisy/src/sys/system.h ****         INTERNAL_FLASH = 0,
  64:../../libdaisy/src/sys/system.h ****         AXI_SRAM,
  65:../../libdaisy/src/sys/system.h ****         QSPI,
  66:../../libdaisy/src/sys/system.h ****         INVALID_ADDRESS,
  67:../../libdaisy/src/sys/system.h ****     };
  68:../../libdaisy/src/sys/system.h **** 
  69:../../libdaisy/src/sys/system.h ****     System() {}
  70:../../libdaisy/src/sys/system.h ****     ~System() {}
  38              		.loc 2 70 5 view .LVU1
  39              		.loc 2 70 5 is_stmt 0 view .LVU2
  40              	.LBE232:
  41              	.LBB233:
  42              	.LBI233:
  43              		.file 3 "../../libdaisy/src/hid/usb.h"
   1:../../libdaisy/src/hid/usb.h **** #pragma once
   2:../../libdaisy/src/hid/usb.h **** #ifndef DSY_HID_USB_H
   3:../../libdaisy/src/hid/usb.h **** #define DSY_HID_USB_H
   4:../../libdaisy/src/hid/usb.h **** #include <stdint.h>
   5:../../libdaisy/src/hid/usb.h **** #include <stdlib.h>
   6:../../libdaisy/src/hid/usb.h **** 
   7:../../libdaisy/src/hid/usb.h **** namespace daisy
   8:../../libdaisy/src/hid/usb.h **** /** @addtogroup externals
   9:../../libdaisy/src/hid/usb.h ****     @{
  10:../../libdaisy/src/hid/usb.h **** */
  11:../../libdaisy/src/hid/usb.h **** 
  12:../../libdaisy/src/hid/usb.h **** {
  13:../../libdaisy/src/hid/usb.h **** /** 
  14:../../libdaisy/src/hid/usb.h ****     @brief Interface for initializing and using the USB Peripherals on the daisy
  15:../../libdaisy/src/hid/usb.h ****     @author Stephen Hensley
  16:../../libdaisy/src/hid/usb.h ****     @date December 2019
  17:../../libdaisy/src/hid/usb.h **** */
  18:../../libdaisy/src/hid/usb.h **** class UsbHandle
  19:../../libdaisy/src/hid/usb.h **** {
  20:../../libdaisy/src/hid/usb.h ****   public:
  21:../../libdaisy/src/hid/usb.h ****     /** Return values for USBHandle Functions */
  22:../../libdaisy/src/hid/usb.h ****     enum class Result
  23:../../libdaisy/src/hid/usb.h ****     {
  24:../../libdaisy/src/hid/usb.h ****         OK,
  25:../../libdaisy/src/hid/usb.h ****         ERR,
  26:../../libdaisy/src/hid/usb.h ****     };
  27:../../libdaisy/src/hid/usb.h **** 
  28:../../libdaisy/src/hid/usb.h ****     /** Specified which of the two USB Peripherals to initialize. */
  29:../../libdaisy/src/hid/usb.h ****     enum UsbPeriph
  30:../../libdaisy/src/hid/usb.h ****     {
  31:../../libdaisy/src/hid/usb.h ****         FS_INTERNAL, /**< Internal pin */
  32:../../libdaisy/src/hid/usb.h ****         FS_EXTERNAL, /**< FS External D+ pin is Pin 38 (GPIO32). FS External D- pin is Pin 37 (GPIO
  33:../../libdaisy/src/hid/usb.h ****         FS_BOTH,     /**< Both */
  34:../../libdaisy/src/hid/usb.h ****     };
  35:../../libdaisy/src/hid/usb.h **** 
  36:../../libdaisy/src/hid/usb.h **** 
  37:../../libdaisy/src/hid/usb.h ****     /** Function called upon reception of a buffer */
ARM GAS  C:\Users\TT\AppData\Local\Temp\ccQ2NNqc.s 			page 4


  38:../../libdaisy/src/hid/usb.h ****     typedef void (*ReceiveCallback)(uint8_t* buff, uint32_t* len);
  39:../../libdaisy/src/hid/usb.h **** 
  40:../../libdaisy/src/hid/usb.h ****     UsbHandle() {}
  41:../../libdaisy/src/hid/usb.h **** 
  42:../../libdaisy/src/hid/usb.h ****     ~UsbHandle() {}
  44              		.loc 3 42 5 is_stmt 1 view .LVU3
  45              		.loc 3 42 5 is_stmt 0 view .LVU4
  46              	.LBE233:
  47              	.LBB234:
  48              	.LBI234:
  49              		.file 4 "../../libdaisy/src/per/adc.h"
   1:../../libdaisy/src/per/adc.h **** #pragma once
   2:../../libdaisy/src/per/adc.h **** #ifndef DSY_ADC_H
   3:../../libdaisy/src/per/adc.h **** #define DSY_ADC_H /**< Macro */
   4:../../libdaisy/src/per/adc.h **** #include <stdint.h>
   5:../../libdaisy/src/per/adc.h **** #include <stdlib.h>
   6:../../libdaisy/src/per/adc.h **** #include "daisy_core.h"
   7:../../libdaisy/src/per/adc.h **** #include "per/gpio.h"
   8:../../libdaisy/src/per/adc.h **** 
   9:../../libdaisy/src/per/adc.h **** #define DSY_ADC_MAX_CHANNELS 16 /**< Maximum number of ADC channels */
  10:../../libdaisy/src/per/adc.h **** 
  11:../../libdaisy/src/per/adc.h **** namespace daisy
  12:../../libdaisy/src/per/adc.h **** {
  13:../../libdaisy/src/per/adc.h **** /** @addtogroup analog_digital_conversion
  14:../../libdaisy/src/per/adc.h ****     @{
  15:../../libdaisy/src/per/adc.h **** */
  16:../../libdaisy/src/per/adc.h **** 
  17:../../libdaisy/src/per/adc.h **** /* While there may not be many configuration options here,
  18:../../libdaisy/src/per/adc.h **** using a struct like this allows us to add more configuration
  19:../../libdaisy/src/per/adc.h **** later without breaking existing functionality.
  20:../../libdaisy/src/per/adc.h **** */
  21:../../libdaisy/src/per/adc.h **** 
  22:../../libdaisy/src/per/adc.h **** /** Configuration Structure for a given channel */
  23:../../libdaisy/src/per/adc.h **** struct AdcChannelConfig
  24:../../libdaisy/src/per/adc.h **** {
  25:../../libdaisy/src/per/adc.h ****     /** Which pin to use for multiplexing */
  26:../../libdaisy/src/per/adc.h ****     enum MuxPin
  27:../../libdaisy/src/per/adc.h ****     {
  28:../../libdaisy/src/per/adc.h ****         MUX_SEL_0,    /**< & */
  29:../../libdaisy/src/per/adc.h ****         MUX_SEL_1,    /**< & */
  30:../../libdaisy/src/per/adc.h ****         MUX_SEL_2,    /**< & */
  31:../../libdaisy/src/per/adc.h ****         MUX_SEL_LAST, /**< & */
  32:../../libdaisy/src/per/adc.h ****     };
  33:../../libdaisy/src/per/adc.h **** 
  34:../../libdaisy/src/per/adc.h ****     /** Initializes a single ADC pin as an ADC. 
  35:../../libdaisy/src/per/adc.h ****     \param pin Pin to init.
  36:../../libdaisy/src/per/adc.h ****      */
  37:../../libdaisy/src/per/adc.h ****     void InitSingle(dsy_gpio_pin pin);
  38:../../libdaisy/src/per/adc.h **** 
  39:../../libdaisy/src/per/adc.h ****     /** 
  40:../../libdaisy/src/per/adc.h ****     Initializes a single ADC pin as a Multiplexed ADC.
  41:../../libdaisy/src/per/adc.h ****     Requires a CD405X Multiplexer connected to the pin.
  42:../../libdaisy/src/per/adc.h ****     You only need to supply the mux pins that are required,
  43:../../libdaisy/src/per/adc.h ****     e.g. a 4052 mux would only require mux_0 and mux_1.
  44:../../libdaisy/src/per/adc.h ****     Internal Callbacks handle the pin addressing.
  45:../../libdaisy/src/per/adc.h ****     \param mux_channels must be 1-8
  46:../../libdaisy/src/per/adc.h ****     \param mux_0 First mux pin
ARM GAS  C:\Users\TT\AppData\Local\Temp\ccQ2NNqc.s 			page 5


  47:../../libdaisy/src/per/adc.h ****     \param mux_1 Second mux pin
  48:../../libdaisy/src/per/adc.h ****     \param mux_2 Third mux pin
  49:../../libdaisy/src/per/adc.h ****     \param adc_pin &
  50:../../libdaisy/src/per/adc.h ****     */
  51:../../libdaisy/src/per/adc.h ****     void InitMux(dsy_gpio_pin adc_pin,
  52:../../libdaisy/src/per/adc.h ****                  size_t       mux_channels,
  53:../../libdaisy/src/per/adc.h ****                  dsy_gpio_pin mux_0,
  54:../../libdaisy/src/per/adc.h ****                  dsy_gpio_pin mux_1 = {DSY_GPIOX, 0},
  55:../../libdaisy/src/per/adc.h ****                  dsy_gpio_pin mux_2 = {DSY_GPIOX, 0});
  56:../../libdaisy/src/per/adc.h **** 
  57:../../libdaisy/src/per/adc.h ****     dsy_gpio pin_;                   /**< & */
  58:../../libdaisy/src/per/adc.h ****     dsy_gpio mux_pin_[MUX_SEL_LAST]; /**< & */
  59:../../libdaisy/src/per/adc.h ****     uint8_t  mux_channels_;          /**< & */
  60:../../libdaisy/src/per/adc.h **** };
  61:../../libdaisy/src/per/adc.h **** 
  62:../../libdaisy/src/per/adc.h **** /**
  63:../../libdaisy/src/per/adc.h ****    Handler for analog to digital conversion
  64:../../libdaisy/src/per/adc.h **** */
  65:../../libdaisy/src/per/adc.h **** class AdcHandle
  66:../../libdaisy/src/per/adc.h **** {
  67:../../libdaisy/src/per/adc.h ****   public:
  68:../../libdaisy/src/per/adc.h ****     /** Supported oversampling amounts */
  69:../../libdaisy/src/per/adc.h ****     enum OverSampling
  70:../../libdaisy/src/per/adc.h ****     {
  71:../../libdaisy/src/per/adc.h ****         OVS_NONE, /**< & */
  72:../../libdaisy/src/per/adc.h ****         OVS_4,    /**< & */
  73:../../libdaisy/src/per/adc.h ****         OVS_8,    /**< & */
  74:../../libdaisy/src/per/adc.h ****         OVS_16,   /**< & */
  75:../../libdaisy/src/per/adc.h ****         OVS_32,   /**< & */
  76:../../libdaisy/src/per/adc.h ****         OVS_64,   /**< & */
  77:../../libdaisy/src/per/adc.h ****         OVS_128,  /**< & */
  78:../../libdaisy/src/per/adc.h ****         OVS_256,  /**< & */
  79:../../libdaisy/src/per/adc.h ****         OVS_512,  /**< & */
  80:../../libdaisy/src/per/adc.h ****         OVS_1024, /**< & */
  81:../../libdaisy/src/per/adc.h ****         OVS_LAST, /**< & */
  82:../../libdaisy/src/per/adc.h ****     };
  83:../../libdaisy/src/per/adc.h **** 
  84:../../libdaisy/src/per/adc.h ****     AdcHandle() {}
  85:../../libdaisy/src/per/adc.h ****     ~AdcHandle() {}
  50              		.loc 4 85 5 is_stmt 1 view .LVU5
  51              		.loc 4 85 5 is_stmt 0 view .LVU6
  52              	.LBE234:
  53              	.LBB235:
  54              	.LBI235:
  55              		.file 5 "../../libdaisy/src/hid/audio.h"
   1:../../libdaisy/src/hid/audio.h **** #ifndef DSY_AUDIO_H
   2:../../libdaisy/src/hid/audio.h **** #define DSY_AUDIO_H /**< & */
   3:../../libdaisy/src/hid/audio.h **** 
   4:../../libdaisy/src/hid/audio.h **** #include "per/sai.h"
   5:../../libdaisy/src/hid/audio.h **** 
   6:../../libdaisy/src/hid/audio.h **** namespace daisy
   7:../../libdaisy/src/hid/audio.h **** {
   8:../../libdaisy/src/hid/audio.h **** class AudioHandle
   9:../../libdaisy/src/hid/audio.h **** {
  10:../../libdaisy/src/hid/audio.h ****   public:
  11:../../libdaisy/src/hid/audio.h ****     /** Manually configurable details about the Audio Engine */
  12:../../libdaisy/src/hid/audio.h ****     /** TODO: Figure out how to get samplerate in here. */
ARM GAS  C:\Users\TT\AppData\Local\Temp\ccQ2NNqc.s 			page 6


  13:../../libdaisy/src/hid/audio.h ****     struct Config
  14:../../libdaisy/src/hid/audio.h ****     {
  15:../../libdaisy/src/hid/audio.h ****         size_t                        blocksize;
  16:../../libdaisy/src/hid/audio.h ****         SaiHandle::Config::SampleRate samplerate;
  17:../../libdaisy/src/hid/audio.h ****         float                         postgain;
  18:../../libdaisy/src/hid/audio.h ****     };
  19:../../libdaisy/src/hid/audio.h **** 
  20:../../libdaisy/src/hid/audio.h ****     enum class Result
  21:../../libdaisy/src/hid/audio.h ****     {
  22:../../libdaisy/src/hid/audio.h ****         OK,
  23:../../libdaisy/src/hid/audio.h ****         ERR,
  24:../../libdaisy/src/hid/audio.h ****     };
  25:../../libdaisy/src/hid/audio.h **** 
  26:../../libdaisy/src/hid/audio.h ****     /** Non-Interleaving input buffer
  27:../../libdaisy/src/hid/audio.h ****      * Buffer arranged by float[chn][sample] 
  28:../../libdaisy/src/hid/audio.h ****      * const so that the user can't modify the input
  29:../../libdaisy/src/hid/audio.h ****     */
  30:../../libdaisy/src/hid/audio.h ****     typedef const float* const* InputBuffer;
  31:../../libdaisy/src/hid/audio.h **** 
  32:../../libdaisy/src/hid/audio.h ****     /** Non-Interleaving output buffer
  33:../../libdaisy/src/hid/audio.h ****      * Arranged by float[chn][sample] 
  34:../../libdaisy/src/hid/audio.h ****     */
  35:../../libdaisy/src/hid/audio.h ****     typedef float** OutputBuffer;
  36:../../libdaisy/src/hid/audio.h **** 
  37:../../libdaisy/src/hid/audio.h ****     /** Type for a Non-Interleaving audio callback 
  38:../../libdaisy/src/hid/audio.h ****    * Non-Interleaving audio callbacks in daisy will be of this type
  39:../../libdaisy/src/hid/audio.h ****   */
  40:../../libdaisy/src/hid/audio.h ****     typedef void (*AudioCallback)(InputBuffer  in,
  41:../../libdaisy/src/hid/audio.h ****                                   OutputBuffer out,
  42:../../libdaisy/src/hid/audio.h ****                                   size_t       size);
  43:../../libdaisy/src/hid/audio.h **** 
  44:../../libdaisy/src/hid/audio.h ****     /** Interleaving Input buffer
  45:../../libdaisy/src/hid/audio.h ****      ** audio is prepared as { L0, R0, L1, R1, . . . LN, RN }]
  46:../../libdaisy/src/hid/audio.h ****      ** this is const, as the user shouldn't modify it
  47:../../libdaisy/src/hid/audio.h ****     */
  48:../../libdaisy/src/hid/audio.h ****     typedef const float* InterleavingInputBuffer;
  49:../../libdaisy/src/hid/audio.h **** 
  50:../../libdaisy/src/hid/audio.h ****     /** Interleaving Output buffer 
  51:../../libdaisy/src/hid/audio.h ****      ** audio is prepared as { L0, R0, L1, R1, . . . LN, RN }
  52:../../libdaisy/src/hid/audio.h ****     */
  53:../../libdaisy/src/hid/audio.h ****     typedef float* InterleavingOutputBuffer;
  54:../../libdaisy/src/hid/audio.h **** 
  55:../../libdaisy/src/hid/audio.h ****     /** Interleaving Audio Callback 
  56:../../libdaisy/src/hid/audio.h ****    * Interleaving audio callbacks in daisy must be of this type
  57:../../libdaisy/src/hid/audio.h ****   */
  58:../../libdaisy/src/hid/audio.h ****     typedef void (*InterleavingAudioCallback)(InterleavingInputBuffer  in,
  59:../../libdaisy/src/hid/audio.h ****                                               InterleavingOutputBuffer out,
  60:../../libdaisy/src/hid/audio.h ****                                               size_t                   size);
  61:../../libdaisy/src/hid/audio.h **** 
  62:../../libdaisy/src/hid/audio.h ****     AudioHandle() : pimpl_(nullptr) {}
  63:../../libdaisy/src/hid/audio.h ****     ~AudioHandle() {}
  56              		.loc 5 63 5 is_stmt 1 view .LVU7
  57              		.loc 5 63 5 is_stmt 0 view .LVU8
  58              	.LBE235:
  59              		.loc 1 22 19 view .LVU9
  60 0000 7047     		bx	lr
  61              		.cfi_endproc
ARM GAS  C:\Users\TT\AppData\Local\Temp\ccQ2NNqc.s 			page 7


  62              	.LFE2022:
  64              		.weak	_ZN5daisy9DaisySeedD1Ev
  65              		.thumb_set _ZN5daisy9DaisySeedD1Ev,_ZN5daisy9DaisySeedD2Ev
  66 0002 00BF     		.section	.text._ZN5daisy10DaisyPetalD2Ev,"axG",%progbits,_ZN5daisy10DaisyPetalD5Ev,comdat
  67              		.align	1
  68              		.p2align 2,,3
  69              		.weak	_ZN5daisy10DaisyPetalD2Ev
  70              		.syntax unified
  71              		.thumb
  72              		.thumb_func
  73              		.fpu fpv5-d16
  75              	_ZN5daisy10DaisyPetalD2Ev:
  76              	.LVL1:
  77              	.LFB2034:
  78              		.file 6 "../../libdaisy/src/daisy_petal.h"
   1:../../libdaisy/src/daisy_petal.h **** #pragma once
   2:../../libdaisy/src/daisy_petal.h **** #ifndef DSY_PETAL_H
   3:../../libdaisy/src/daisy_petal.h **** #define DSY_PETAL_H /**< & */
   4:../../libdaisy/src/daisy_petal.h **** 
   5:../../libdaisy/src/daisy_petal.h **** #include "daisy_seed.h"
   6:../../libdaisy/src/daisy_petal.h **** 
   7:../../libdaisy/src/daisy_petal.h **** namespace daisy
   8:../../libdaisy/src/daisy_petal.h **** {
   9:../../libdaisy/src/daisy_petal.h **** /**
  10:../../libdaisy/src/daisy_petal.h ****    @brief Helpers and hardware definitions for daisy petal.
  11:../../libdaisy/src/daisy_petal.h ****    @ingroup boards
  12:../../libdaisy/src/daisy_petal.h **** */
  13:../../libdaisy/src/daisy_petal.h **** class DaisyPetal
  14:../../libdaisy/src/daisy_petal.h **** {
  15:../../libdaisy/src/daisy_petal.h ****   public:
  16:../../libdaisy/src/daisy_petal.h ****     /** Switches */
  17:../../libdaisy/src/daisy_petal.h ****     enum Sw
  18:../../libdaisy/src/daisy_petal.h ****     {
  19:../../libdaisy/src/daisy_petal.h ****         SW_1,    /**< Footswitch */
  20:../../libdaisy/src/daisy_petal.h ****         SW_2,    /**< Footswitch */
  21:../../libdaisy/src/daisy_petal.h ****         SW_3,    /**< Footswitch */
  22:../../libdaisy/src/daisy_petal.h ****         SW_4,    /**< Footswitch */
  23:../../libdaisy/src/daisy_petal.h ****         SW_5,    /**< Toggle */
  24:../../libdaisy/src/daisy_petal.h ****         SW_6,    /**< Toggle */
  25:../../libdaisy/src/daisy_petal.h ****         SW_7,    /**< Toggle */
  26:../../libdaisy/src/daisy_petal.h ****         SW_LAST, /**< Last enum item */
  27:../../libdaisy/src/daisy_petal.h ****     };
  28:../../libdaisy/src/daisy_petal.h **** 
  29:../../libdaisy/src/daisy_petal.h ****     /** Knobs */
  30:../../libdaisy/src/daisy_petal.h ****     enum Knob
  31:../../libdaisy/src/daisy_petal.h ****     {
  32:../../libdaisy/src/daisy_petal.h ****         KNOB_1,    /**< & */
  33:../../libdaisy/src/daisy_petal.h ****         KNOB_2,    /**< & */
  34:../../libdaisy/src/daisy_petal.h ****         KNOB_3,    /**< & */
  35:../../libdaisy/src/daisy_petal.h ****         KNOB_4,    /**< & */
  36:../../libdaisy/src/daisy_petal.h ****         KNOB_5,    /**< & */
  37:../../libdaisy/src/daisy_petal.h ****         KNOB_6,    /**< & */
  38:../../libdaisy/src/daisy_petal.h ****         KNOB_LAST, /**< & */
  39:../../libdaisy/src/daisy_petal.h ****     };
  40:../../libdaisy/src/daisy_petal.h **** 
  41:../../libdaisy/src/daisy_petal.h ****     /** Leds in ringled */
  42:../../libdaisy/src/daisy_petal.h ****     enum RingLed
ARM GAS  C:\Users\TT\AppData\Local\Temp\ccQ2NNqc.s 			page 8


  43:../../libdaisy/src/daisy_petal.h ****     {
  44:../../libdaisy/src/daisy_petal.h ****         RING_LED_1,   /**< & */
  45:../../libdaisy/src/daisy_petal.h ****         RING_LED_2,   /**< & */
  46:../../libdaisy/src/daisy_petal.h ****         RING_LED_3,   /**< & */
  47:../../libdaisy/src/daisy_petal.h ****         RING_LED_4,   /**< & */
  48:../../libdaisy/src/daisy_petal.h ****         RING_LED_5,   /**< & */
  49:../../libdaisy/src/daisy_petal.h ****         RING_LED_6,   /**< & */
  50:../../libdaisy/src/daisy_petal.h ****         RING_LED_7,   /**< & */
  51:../../libdaisy/src/daisy_petal.h ****         RING_LED_8,   /**< & */
  52:../../libdaisy/src/daisy_petal.h ****         RING_LED_LAST /**< & */
  53:../../libdaisy/src/daisy_petal.h ****     };
  54:../../libdaisy/src/daisy_petal.h **** 
  55:../../libdaisy/src/daisy_petal.h ****     /** footswitch leds */
  56:../../libdaisy/src/daisy_petal.h ****     enum FootswitchLed
  57:../../libdaisy/src/daisy_petal.h ****     {
  58:../../libdaisy/src/daisy_petal.h ****         FOOTSWITCH_LED_1,    /**< & */
  59:../../libdaisy/src/daisy_petal.h ****         FOOTSWITCH_LED_2,    /**< & */
  60:../../libdaisy/src/daisy_petal.h ****         FOOTSWITCH_LED_3,    /**< & */
  61:../../libdaisy/src/daisy_petal.h ****         FOOTSWITCH_LED_4,    /**< & */
  62:../../libdaisy/src/daisy_petal.h ****         FOOTSWITCH_LED_LAST, /**< & */
  63:../../libdaisy/src/daisy_petal.h ****     };
  64:../../libdaisy/src/daisy_petal.h **** 
  65:../../libdaisy/src/daisy_petal.h ****     /** Constructor */
  66:../../libdaisy/src/daisy_petal.h ****     DaisyPetal() {}
  67:../../libdaisy/src/daisy_petal.h ****     /** Destructor */
  68:../../libdaisy/src/daisy_petal.h ****     ~DaisyPetal() {}
  79              		.loc 6 68 5 is_stmt 1 view -0
  80              		.cfi_startproc
  81              		@ args = 0, pretend = 0, frame = 0
  82              		@ frame_needed = 0, uses_anonymous_args = 0
  83              		@ link register save eliminated.
  84              	.LBB236:
  85              	.LBI236:
  86              		.file 7 "../../libdaisy/src/hid/ctrl.h"
   1:../../libdaisy/src/hid/ctrl.h **** #pragma once
   2:../../libdaisy/src/hid/ctrl.h **** #ifndef DSY_KNOB_H
   3:../../libdaisy/src/hid/ctrl.h **** #define DSY_KNOB_H /**< & */
   4:../../libdaisy/src/hid/ctrl.h **** #include <stdint.h>
   5:../../libdaisy/src/hid/ctrl.h **** 
   6:../../libdaisy/src/hid/ctrl.h **** #ifdef __cplusplus
   7:../../libdaisy/src/hid/ctrl.h **** namespace daisy
   8:../../libdaisy/src/hid/ctrl.h **** {
   9:../../libdaisy/src/hid/ctrl.h **** /**
  10:../../libdaisy/src/hid/ctrl.h ****     @brief Hardware Interface for control inputs \n 
  11:../../libdaisy/src/hid/ctrl.h ****     Primarily designed for ADC input controls such as \n 
  12:../../libdaisy/src/hid/ctrl.h ****     potentiometers, and control voltage. \n 
  13:../../libdaisy/src/hid/ctrl.h ****     @author Stephen Hensley
  14:../../libdaisy/src/hid/ctrl.h ****     @date November 2019
  15:../../libdaisy/src/hid/ctrl.h ****     @ingroup controls
  16:../../libdaisy/src/hid/ctrl.h **** */
  17:../../libdaisy/src/hid/ctrl.h **** class AnalogControl
  18:../../libdaisy/src/hid/ctrl.h **** {
  19:../../libdaisy/src/hid/ctrl.h ****   public:
  20:../../libdaisy/src/hid/ctrl.h ****     /** Constructor */
  21:../../libdaisy/src/hid/ctrl.h ****     AnalogControl() {}
  22:../../libdaisy/src/hid/ctrl.h ****     /** destructor */
  23:../../libdaisy/src/hid/ctrl.h ****     ~AnalogControl() {}
ARM GAS  C:\Users\TT\AppData\Local\Temp\ccQ2NNqc.s 			page 9


  87              		.loc 7 23 5 view .LVU11
  88              		.loc 7 23 5 is_stmt 0 view .LVU12
  89              	.LBE236:
  90              	.LBB237:
  91              	.LBI237:
  92              		.file 8 "../../libdaisy/src/hid/encoder.h"
   1:../../libdaisy/src/hid/encoder.h **** #pragma once
   2:../../libdaisy/src/hid/encoder.h **** #ifndef DSY_ENCODER_H
   3:../../libdaisy/src/hid/encoder.h **** #define DSY_ENCODER_H
   4:../../libdaisy/src/hid/encoder.h **** #include "daisy_core.h"
   5:../../libdaisy/src/hid/encoder.h **** #include "per/gpio.h"
   6:../../libdaisy/src/hid/encoder.h **** #include "hid/switch.h"
   7:../../libdaisy/src/hid/encoder.h **** 
   8:../../libdaisy/src/hid/encoder.h **** namespace daisy
   9:../../libdaisy/src/hid/encoder.h **** {
  10:../../libdaisy/src/hid/encoder.h **** /** 
  11:../../libdaisy/src/hid/encoder.h ****     @brief Generic Class for handling Quadrature Encoders \n 
  12:../../libdaisy/src/hid/encoder.h ****     Inspired/influenced by Mutable Instruments (pichenettes) Encoder classes
  13:../../libdaisy/src/hid/encoder.h ****     @author Stephen Hensley
  14:../../libdaisy/src/hid/encoder.h ****     @date December 2019
  15:../../libdaisy/src/hid/encoder.h ****     @ingroup controls
  16:../../libdaisy/src/hid/encoder.h **** */
  17:../../libdaisy/src/hid/encoder.h **** class Encoder
  18:../../libdaisy/src/hid/encoder.h **** {
  19:../../libdaisy/src/hid/encoder.h ****   public:
  20:../../libdaisy/src/hid/encoder.h ****     Encoder() {}
  21:../../libdaisy/src/hid/encoder.h ****     ~Encoder() {}
  93              		.loc 8 21 5 is_stmt 1 view .LVU13
  94              	.LBB238:
  95              	.LBI238:
  96              		.file 9 "../../libdaisy/src/hid/switch.h"
   1:../../libdaisy/src/hid/switch.h **** #pragma once
   2:../../libdaisy/src/hid/switch.h **** #ifndef DSY_SWITCH_H
   3:../../libdaisy/src/hid/switch.h **** #define DSY_SWITCH_H
   4:../../libdaisy/src/hid/switch.h **** #include "daisy_core.h"
   5:../../libdaisy/src/hid/switch.h **** #include "per/gpio.h"
   6:../../libdaisy/src/hid/switch.h **** 
   7:../../libdaisy/src/hid/switch.h **** namespace daisy
   8:../../libdaisy/src/hid/switch.h **** {
   9:../../libdaisy/src/hid/switch.h **** /** 
  10:../../libdaisy/src/hid/switch.h ****     Generic Class for handling momentary/latching switches \n 
  11:../../libdaisy/src/hid/switch.h ****     Inspired/influenced by Mutable Instruments (pichenettes) Switch classes
  12:../../libdaisy/src/hid/switch.h ****     @author Stephen Hensley
  13:../../libdaisy/src/hid/switch.h ****     @date December 2019
  14:../../libdaisy/src/hid/switch.h ****     @ingroup controls
  15:../../libdaisy/src/hid/switch.h **** */
  16:../../libdaisy/src/hid/switch.h **** class Switch
  17:../../libdaisy/src/hid/switch.h **** {
  18:../../libdaisy/src/hid/switch.h ****   public:
  19:../../libdaisy/src/hid/switch.h ****     /** Specifies the expected behavior of the switch */
  20:../../libdaisy/src/hid/switch.h ****     enum Type
  21:../../libdaisy/src/hid/switch.h ****     {
  22:../../libdaisy/src/hid/switch.h ****         TYPE_TOGGLE,    /**< & */
  23:../../libdaisy/src/hid/switch.h ****         TYPE_MOMENTARY, /**< & */
  24:../../libdaisy/src/hid/switch.h ****     };
  25:../../libdaisy/src/hid/switch.h ****     /** Specifies whether the pressed is HIGH or LOW. */
  26:../../libdaisy/src/hid/switch.h ****     enum Polarity
ARM GAS  C:\Users\TT\AppData\Local\Temp\ccQ2NNqc.s 			page 10


  27:../../libdaisy/src/hid/switch.h ****     {
  28:../../libdaisy/src/hid/switch.h ****         POLARITY_NORMAL,   /**< & */
  29:../../libdaisy/src/hid/switch.h ****         POLARITY_INVERTED, /**< & */
  30:../../libdaisy/src/hid/switch.h ****     };
  31:../../libdaisy/src/hid/switch.h **** 
  32:../../libdaisy/src/hid/switch.h ****     /** Specifies whether to use built-in Pull Up/Down resistors to hold button at a given state wh
  33:../../libdaisy/src/hid/switch.h ****     enum Pull
  34:../../libdaisy/src/hid/switch.h ****     {
  35:../../libdaisy/src/hid/switch.h ****         PULL_UP,   /**< & */
  36:../../libdaisy/src/hid/switch.h ****         PULL_DOWN, /**< & */
  37:../../libdaisy/src/hid/switch.h ****         PULL_NONE, /**< & */
  38:../../libdaisy/src/hid/switch.h ****     };
  39:../../libdaisy/src/hid/switch.h **** 
  40:../../libdaisy/src/hid/switch.h ****     Switch() {}
  41:../../libdaisy/src/hid/switch.h ****     ~Switch() {}
  97              		.loc 9 41 5 view .LVU14
  98              		.loc 9 41 5 is_stmt 0 view .LVU15
  99              	.LBE238:
 100              	.LBE237:
 101              	.LBB239:
 102              	.LBI239:
 103              		.loc 1 22 5 is_stmt 1 view .LVU16
 104              	.LBB240:
 105              	.LBI240:
 106              		.loc 2 70 5 view .LVU17
 107              		.loc 2 70 5 is_stmt 0 view .LVU18
 108              	.LBE240:
 109              	.LBB241:
 110              	.LBI241:
 111              		.loc 3 42 5 is_stmt 1 view .LVU19
 112              		.loc 3 42 5 is_stmt 0 view .LVU20
 113              	.LBE241:
 114              	.LBB242:
 115              	.LBI242:
 116              		.loc 4 85 5 is_stmt 1 view .LVU21
 117              		.loc 4 85 5 is_stmt 0 view .LVU22
 118              	.LBE242:
 119              	.LBB243:
 120              	.LBI243:
 121              		.loc 5 63 5 is_stmt 1 view .LVU23
 122              		.loc 5 63 5 is_stmt 0 view .LVU24
 123              	.LBE243:
 124              	.LBE239:
 125              		.loc 6 68 20 view .LVU25
 126 0000 7047     		bx	lr
 127              		.cfi_endproc
 128              	.LFE2034:
 130              		.weak	_ZN5daisy10DaisyPetalD1Ev
 131              		.thumb_set _ZN5daisy10DaisyPetalD1Ev,_ZN5daisy10DaisyPetalD2Ev
 132 0002 00BF     		.section	.text._ZL13AudioCallbackPKfPfj,"ax",%progbits
 133              		.align	1
 134              		.p2align 2,,3
 135              		.syntax unified
 136              		.thumb
 137              		.thumb_func
 138              		.fpu fpv5-d16
 140              	_ZL13AudioCallbackPKfPfj:
ARM GAS  C:\Users\TT\AppData\Local\Temp\ccQ2NNqc.s 			page 11


 141              	.LVL2:
 142              	.LFB4260:
 143              		.file 10 "bass_stompbox.cpp"
   1:bass_stompbox.cpp **** //to upload print in the console "make program-dfu"
   2:bass_stompbox.cpp **** //or if Autohotkey is enabled  "uu" and space
   3:bass_stompbox.cpp **** 
   4:bass_stompbox.cpp **** #include "daisy_petal.h"
   5:bass_stompbox.cpp **** #include "daisysp.h"
   6:bass_stompbox.cpp **** 
   7:bass_stompbox.cpp **** using namespace daisy;
   8:bass_stompbox.cpp **** using namespace daisysp;
   9:bass_stompbox.cpp **** 
  10:bass_stompbox.cpp **** DaisySeed  hw;
  11:bass_stompbox.cpp **** DaisyPetal petal;
  12:bass_stompbox.cpp **** 
  13:bass_stompbox.cpp **** bool compressor_ON = false;
  14:bass_stompbox.cpp **** bool flanger_ON    = false;
  15:bass_stompbox.cpp **** bool tone_ON       = false;
  16:bass_stompbox.cpp **** bool osc_ON        = false;
  17:bass_stompbox.cpp **** 
  18:bass_stompbox.cpp **** 
  19:bass_stompbox.cpp **** #define WAVE_LENGTH 4
  20:bass_stompbox.cpp **** float presets[WAVE_LENGTH];
  21:bass_stompbox.cpp **** /** The DSY_QSPI_BSS attribute places your array in QSPI memory */
  22:bass_stompbox.cpp **** float DSY_QSPI_BSS qspi_buffer[WAVE_LENGTH];
  23:bass_stompbox.cpp **** 
  24:bass_stompbox.cpp **** static void AudioCallback(AudioHandle::InterleavingInputBuffer  in,
  25:bass_stompbox.cpp ****                           AudioHandle::InterleavingOutputBuffer out,
  26:bass_stompbox.cpp ****                           size_t                                size)
  27:bass_stompbox.cpp **** {
 144              		.loc 10 27 1 is_stmt 1 view -0
 145              		.cfi_startproc
 146              		@ args = 0, pretend = 0, frame = 0
 147              		@ frame_needed = 0, uses_anonymous_args = 0
  28:bass_stompbox.cpp ****     petal.ProcessAllControls();
 148              		.loc 10 28 5 view .LVU27
 149              	.LBB244:
 150              	.LBI244:
  69:../../libdaisy/src/daisy_petal.h **** 
  70:../../libdaisy/src/daisy_petal.h ****     /** Initialize daisy petal */
  71:../../libdaisy/src/daisy_petal.h ****     void Init(bool boost = false);
  72:../../libdaisy/src/daisy_petal.h **** 
  73:../../libdaisy/src/daisy_petal.h ****     /**
  74:../../libdaisy/src/daisy_petal.h ****        Wait before moving on.
  75:../../libdaisy/src/daisy_petal.h ****        \param del Delay time in ms.
  76:../../libdaisy/src/daisy_petal.h ****      */
  77:../../libdaisy/src/daisy_petal.h ****     void DelayMs(size_t del);
  78:../../libdaisy/src/daisy_petal.h **** 
  79:../../libdaisy/src/daisy_petal.h **** 
  80:../../libdaisy/src/daisy_petal.h ****     /** Starts the callback
  81:../../libdaisy/src/daisy_petal.h ****     \cb Interleaved callback function
  82:../../libdaisy/src/daisy_petal.h ****     */
  83:../../libdaisy/src/daisy_petal.h ****     void StartAudio(AudioHandle::InterleavingAudioCallback cb);
  84:../../libdaisy/src/daisy_petal.h **** 
  85:../../libdaisy/src/daisy_petal.h ****     /** Starts the callback
  86:../../libdaisy/src/daisy_petal.h ****     \cb multichannel callback function
  87:../../libdaisy/src/daisy_petal.h ****     */
ARM GAS  C:\Users\TT\AppData\Local\Temp\ccQ2NNqc.s 			page 12


  88:../../libdaisy/src/daisy_petal.h ****     void StartAudio(AudioHandle::AudioCallback cb);
  89:../../libdaisy/src/daisy_petal.h **** 
  90:../../libdaisy/src/daisy_petal.h ****     /**
  91:../../libdaisy/src/daisy_petal.h ****        Switch callback functions
  92:../../libdaisy/src/daisy_petal.h ****        \param cb New interleaved callback function.
  93:../../libdaisy/src/daisy_petal.h ****     */
  94:../../libdaisy/src/daisy_petal.h ****     void ChangeAudioCallback(AudioHandle::InterleavingAudioCallback cb);
  95:../../libdaisy/src/daisy_petal.h **** 
  96:../../libdaisy/src/daisy_petal.h ****     /**
  97:../../libdaisy/src/daisy_petal.h ****        Switch callback functions
  98:../../libdaisy/src/daisy_petal.h ****        \param cb New multichannel callback function.
  99:../../libdaisy/src/daisy_petal.h ****     */
 100:../../libdaisy/src/daisy_petal.h ****     void ChangeAudioCallback(AudioHandle::AudioCallback cb);
 101:../../libdaisy/src/daisy_petal.h **** 
 102:../../libdaisy/src/daisy_petal.h ****     /** Stops the audio if it is running. */
 103:../../libdaisy/src/daisy_petal.h ****     void StopAudio();
 104:../../libdaisy/src/daisy_petal.h **** 
 105:../../libdaisy/src/daisy_petal.h ****     /** Updates the Audio Sample Rate, and reinitializes.
 106:../../libdaisy/src/daisy_petal.h ****      ** Audio must be stopped for this to work.
 107:../../libdaisy/src/daisy_petal.h ****      */
 108:../../libdaisy/src/daisy_petal.h ****     void SetAudioSampleRate(SaiHandle::Config::SampleRate samplerate);
 109:../../libdaisy/src/daisy_petal.h **** 
 110:../../libdaisy/src/daisy_petal.h ****     /** Returns the audio sample rate in Hz as a floating point number.
 111:../../libdaisy/src/daisy_petal.h ****      */
 112:../../libdaisy/src/daisy_petal.h ****     float AudioSampleRate();
 113:../../libdaisy/src/daisy_petal.h **** 
 114:../../libdaisy/src/daisy_petal.h ****     /** Sets the number of samples processed per channel by the audio callback.
 115:../../libdaisy/src/daisy_petal.h ****        \param size Audio block size
 116:../../libdaisy/src/daisy_petal.h ****      */
 117:../../libdaisy/src/daisy_petal.h ****     void SetAudioBlockSize(size_t size);
 118:../../libdaisy/src/daisy_petal.h **** 
 119:../../libdaisy/src/daisy_petal.h ****     /** Returns the number of samples per channel in a block of audio. */
 120:../../libdaisy/src/daisy_petal.h ****     size_t AudioBlockSize();
 121:../../libdaisy/src/daisy_petal.h **** 
 122:../../libdaisy/src/daisy_petal.h ****     /** Returns the rate in Hz that the Audio callback is called */
 123:../../libdaisy/src/daisy_petal.h ****     float AudioCallbackRate();
 124:../../libdaisy/src/daisy_petal.h **** 
 125:../../libdaisy/src/daisy_petal.h ****     /** Start analog to digital conversion. */
 126:../../libdaisy/src/daisy_petal.h ****     void StartAdc();
 127:../../libdaisy/src/daisy_petal.h **** 
 128:../../libdaisy/src/daisy_petal.h ****     /** Stops Transfering data from the ADC */
 129:../../libdaisy/src/daisy_petal.h ****     void StopAdc();
 130:../../libdaisy/src/daisy_petal.h **** 
 131:../../libdaisy/src/daisy_petal.h ****     /** Call at the same frequency as controls are read for stable readings.*/
 132:../../libdaisy/src/daisy_petal.h ****     void ProcessAnalogControls();
 133:../../libdaisy/src/daisy_petal.h **** 
 134:../../libdaisy/src/daisy_petal.h ****     /** Process Analog and Digital Controls */
 135:../../libdaisy/src/daisy_petal.h ****     inline void ProcessAllControls()
 151              		.loc 6 135 17 view .LVU28
 152              	.LBB245:
 136:../../libdaisy/src/daisy_petal.h ****     {
 137:../../libdaisy/src/daisy_petal.h ****         ProcessAnalogControls();
 153              		.loc 6 137 9 view .LVU29
 154              	.LBE245:
 155              	.LBE244:
  27:bass_stompbox.cpp ****     petal.ProcessAllControls();
 156              		.loc 10 27 1 is_stmt 0 view .LVU30
ARM GAS  C:\Users\TT\AppData\Local\Temp\ccQ2NNqc.s 			page 13


 157 0000 2DE9F047 		push	{r4, r5, r6, r7, r8, r9, r10, lr}
 158              		.cfi_def_cfa_offset 32
 159              		.cfi_offset 4, -32
 160              		.cfi_offset 5, -28
 161              		.cfi_offset 6, -24
 162              		.cfi_offset 7, -20
 163              		.cfi_offset 8, -16
 164              		.cfi_offset 9, -12
 165              		.cfi_offset 10, -8
 166              		.cfi_offset 14, -4
 167              	.LBB249:
 168              	.LBB246:
 169              		.loc 6 137 30 view .LVU31
 170 0004 234F     		ldr	r7, .L12
 171              	.LBE246:
 172              	.LBE249:
  27:bass_stompbox.cpp ****     petal.ProcessAllControls();
 173              		.loc 10 27 1 view .LVU32
 174 0006 0446     		mov	r4, r0
  29:bass_stompbox.cpp ****     compressor_ON ^= petal.switches[0].RisingEdge();
 175              		.loc 10 29 19 view .LVU33
 176 0008 DFF88C90 		ldr	r9, .L12+4
  27:bass_stompbox.cpp ****     petal.ProcessAllControls();
 177              		.loc 10 27 1 view .LVU34
 178 000c 0D46     		mov	r5, r1
 179              	.LBB250:
 180              	.LBB247:
 181              		.loc 6 137 30 view .LVU35
 182 000e 3846     		mov	r0, r7
 183              	.LVL3:
 184              		.loc 6 137 30 view .LVU36
 185              	.LBE247:
 186              	.LBE250:
  27:bass_stompbox.cpp ****     petal.ProcessAllControls();
 187              		.loc 10 27 1 view .LVU37
 188 0010 1646     		mov	r6, r2
 189              	.LBB251:
 190              	.LBB248:
 191              		.loc 6 137 30 view .LVU38
 192 0012 FFF7FEFF 		bl	_ZN5daisy10DaisyPetal21ProcessAnalogControlsEv
 193              	.LVL4:
 138:../../libdaisy/src/daisy_petal.h ****         ProcessDigitalControls();
 194              		.loc 6 138 9 is_stmt 1 view .LVU39
 195              		.loc 6 138 31 is_stmt 0 view .LVU40
 196 0016 3846     		mov	r0, r7
 197 0018 FFF7FEFF 		bl	_ZN5daisy10DaisyPetal22ProcessDigitalControlsEv
 198              	.LVL5:
 199              		.loc 6 138 31 view .LVU41
 200              	.LBE248:
 201              	.LBE251:
 202              		.loc 10 29 5 is_stmt 1 view .LVU42
 203              	.LBB252:
 204              	.LBI252:
  42:../../libdaisy/src/hid/switch.h **** 
  43:../../libdaisy/src/hid/switch.h ****     /** 
  44:../../libdaisy/src/hid/switch.h ****     Initializes the switch object with a given port/pin combo.
  45:../../libdaisy/src/hid/switch.h ****     \param pin port/pin object to tell the switch which hardware pin to use.
ARM GAS  C:\Users\TT\AppData\Local\Temp\ccQ2NNqc.s 			page 14


  46:../../libdaisy/src/hid/switch.h ****     \param update_rate the rate at which the Debounce() function will be called. (used for timing).
  47:../../libdaisy/src/hid/switch.h ****     \param t switch type -- Default: TYPE_MOMENTARY
  48:../../libdaisy/src/hid/switch.h ****     \param pol switch polarity -- Default: POLARITY_INVERTED
  49:../../libdaisy/src/hid/switch.h ****     \param pu switch pull up/down -- Default: PULL_UP
  50:../../libdaisy/src/hid/switch.h ****     */
  51:../../libdaisy/src/hid/switch.h ****     void
  52:../../libdaisy/src/hid/switch.h ****     Init(dsy_gpio_pin pin, float update_rate, Type t, Polarity pol, Pull pu);
  53:../../libdaisy/src/hid/switch.h **** 
  54:../../libdaisy/src/hid/switch.h ****     /**
  55:../../libdaisy/src/hid/switch.h ****        Simplified Init.
  56:../../libdaisy/src/hid/switch.h ****        \param pin port/pin object to tell the switch which hardware pin to use.
  57:../../libdaisy/src/hid/switch.h ****        \param update_rate the rate at which the Debounce() function will be called. (used for timin
  58:../../libdaisy/src/hid/switch.h ****     */
  59:../../libdaisy/src/hid/switch.h ****     void Init(dsy_gpio_pin pin, float update_rate);
  60:../../libdaisy/src/hid/switch.h **** 
  61:../../libdaisy/src/hid/switch.h ****     /** 
  62:../../libdaisy/src/hid/switch.h ****     Called at update_rate to debounce and handle timing for the switch.
  63:../../libdaisy/src/hid/switch.h ****     In order for events not to be missed, its important that the Edge/Pressed checks
  64:../../libdaisy/src/hid/switch.h ****     be made at the same rate as the debounce function is being called.
  65:../../libdaisy/src/hid/switch.h ****     */
  66:../../libdaisy/src/hid/switch.h ****     void Debounce();
  67:../../libdaisy/src/hid/switch.h **** 
  68:../../libdaisy/src/hid/switch.h ****     /** \return true if a button was just pressed. */
  69:../../libdaisy/src/hid/switch.h ****     inline bool RisingEdge() const { return state_ == 0x7f; }
 205              		.loc 9 69 17 view .LVU43
 206              	.LBB253:
 207              		.loc 9 69 38 view .LVU44
 208              		.loc 9 69 38 is_stmt 0 view .LVU45
 209              	.LBE253:
 210              	.LBE252:
 211              		.loc 10 29 19 view .LVU46
 212 001c 99F80000 		ldrb	r0, [r9]	@ zero_extendqisi2
 213              	.LBB255:
 214              	.LBB254:
 215              		.loc 9 69 55 view .LVU47
 216 0020 97F845A1 		ldrb	r10, [r7, #325]	@ zero_extendqisi2
 217              	.LBE254:
 218              	.LBE255:
  30:bass_stompbox.cpp ****     flanger_ON ^= petal.switches[1].RisingEdge();
 219              		.loc 10 30 16 view .LVU48
 220 0024 DFF87480 		ldr	r8, .L12+8
  29:bass_stompbox.cpp ****     flanger_ON ^= petal.switches[1].RisingEdge();
 221              		.loc 10 29 19 view .LVU49
 222 0028 BAF17F0F 		cmp	r10, #127
 223 002c 08BF     		it	eq
 224 002e 80F00100 		eoreq	r0, r0, #1
  31:bass_stompbox.cpp ****     tone_ON ^= petal.switches[2].RisingEdge();
 225              		.loc 10 31 13 view .LVU50
 226 0032 DFF86CE0 		ldr	lr, .L12+12
  30:bass_stompbox.cpp ****     flanger_ON ^= petal.switches[1].RisingEdge();
 227              		.loc 10 30 16 view .LVU51
 228 0036 98F80010 		ldrb	r1, [r8]	@ zero_extendqisi2
  29:bass_stompbox.cpp ****     flanger_ON ^= petal.switches[1].RisingEdge();
 229              		.loc 10 29 19 view .LVU52
 230 003a 89F80000 		strb	r0, [r9]
  30:bass_stompbox.cpp ****     flanger_ON ^= petal.switches[1].RisingEdge();
 231              		.loc 10 30 5 is_stmt 1 view .LVU53
ARM GAS  C:\Users\TT\AppData\Local\Temp\ccQ2NNqc.s 			page 15


 232              	.LVL6:
 233              	.LBB256:
 234              	.LBI256:
 235              		.loc 9 69 17 view .LVU54
 236              	.LBB257:
 237              		.loc 9 69 38 view .LVU55
 238              		.loc 9 69 55 is_stmt 0 view .LVU56
 239 003e 97F85501 		ldrb	r0, [r7, #341]	@ zero_extendqisi2
 240              	.LBE257:
 241              	.LBE256:
 242              		.loc 10 31 13 view .LVU57
 243 0042 9EF80020 		ldrb	r2, [lr]	@ zero_extendqisi2
  30:bass_stompbox.cpp ****     flanger_ON ^= petal.switches[1].RisingEdge();
 244              		.loc 10 30 16 view .LVU58
 245 0046 7F28     		cmp	r0, #127
 246 0048 08BF     		it	eq
 247 004a 81F00101 		eoreq	r1, r1, #1
  32:bass_stompbox.cpp ****     osc_ON ^= petal.switches[3].RisingEdge();
 248              		.loc 10 32 12 view .LVU59
 249 004e DFF854C0 		ldr	ip, .L12+16
  30:bass_stompbox.cpp ****     tone_ON ^= petal.switches[2].RisingEdge();
 250              		.loc 10 30 16 view .LVU60
 251 0052 88F80010 		strb	r1, [r8]
  31:bass_stompbox.cpp ****     tone_ON ^= petal.switches[2].RisingEdge();
 252              		.loc 10 31 5 is_stmt 1 view .LVU61
 253              	.LVL7:
 254              	.LBB258:
 255              	.LBI258:
 256              		.loc 9 69 17 view .LVU62
 257              	.LBB259:
 258              		.loc 9 69 38 view .LVU63
 259              		.loc 9 69 55 is_stmt 0 view .LVU64
 260 0056 97F86511 		ldrb	r1, [r7, #357]	@ zero_extendqisi2
 261              	.LBE259:
 262              	.LBE258:
 263              		.loc 10 32 12 view .LVU65
 264 005a 9CF80030 		ldrb	r3, [ip]	@ zero_extendqisi2
  31:bass_stompbox.cpp ****     tone_ON ^= petal.switches[2].RisingEdge();
 265              		.loc 10 31 13 view .LVU66
 266 005e 7F29     		cmp	r1, #127
 267 0060 08BF     		it	eq
 268 0062 82F00102 		eoreq	r2, r2, #1
 269 0066 8EF80020 		strb	r2, [lr]
 270              		.loc 10 32 5 is_stmt 1 view .LVU67
 271              	.LVL8:
 272              	.LBB260:
 273              	.LBI260:
 274              		.loc 9 69 17 view .LVU68
 275              	.LBB261:
 276              		.loc 9 69 38 view .LVU69
 277              		.loc 9 69 55 is_stmt 0 view .LVU70
 278 006a 97F87521 		ldrb	r2, [r7, #373]	@ zero_extendqisi2
 279              	.LBE261:
 280              	.LBE260:
 281              		.loc 10 32 12 view .LVU71
 282 006e 7F2A     		cmp	r2, #127
 283 0070 08BF     		it	eq
ARM GAS  C:\Users\TT\AppData\Local\Temp\ccQ2NNqc.s 			page 16


 284 0072 83F00103 		eoreq	r3, r3, #1
 285 0076 8CF80030 		strb	r3, [ip]
  33:bass_stompbox.cpp **** 
  34:bass_stompbox.cpp ****     for(size_t i = 0; i < size; i++)
 286              		.loc 10 34 5 is_stmt 1 view .LVU72
 287              	.LVL9:
 288              	.LBB262:
 289              		.loc 10 34 25 view .LVU73
 290 007a 4EB1     		cbz	r6, .L4
 291 007c 2046     		mov	r0, r4
 292 007e 2946     		mov	r1, r5
 293 0080 04EB8602 		add	r2, r4, r6, lsl #2
 294              	.LVL10:
 295              	.L6:
  35:bass_stompbox.cpp ****     {
  36:bass_stompbox.cpp ****         out[i] = in[i];
 296              		.loc 10 36 9 discriminator 2 view .LVU74
 297              		.loc 10 36 22 is_stmt 0 discriminator 2 view .LVU75
 298 0084 50F8043B 		ldr	r3, [r0], #4	@ float
  34:bass_stompbox.cpp ****     {
 299              		.loc 10 34 25 discriminator 2 view .LVU76
 300 0088 9042     		cmp	r0, r2
 301              		.loc 10 36 16 discriminator 2 view .LVU77
 302 008a 41F8043B 		str	r3, [r1], #4	@ float
  34:bass_stompbox.cpp ****     {
 303              		.loc 10 34 5 is_stmt 1 discriminator 2 view .LVU78
  34:bass_stompbox.cpp ****     {
 304              		.loc 10 34 25 discriminator 2 view .LVU79
 305 008e F9D1     		bne	.L6
 306              	.L4:
 307              	.LBE262:
  37:bass_stompbox.cpp ****     }
  38:bass_stompbox.cpp **** }
 308              		.loc 10 38 1 is_stmt 0 view .LVU80
 309 0090 BDE8F087 		pop	{r4, r5, r6, r7, r8, r9, r10, pc}
 310              	.LVL11:
 311              	.L13:
 312              		.loc 10 38 1 view .LVU81
 313              		.align	2
 314              	.L12:
 315 0094 00000000 		.word	.LANCHOR0
 316 0098 00000000 		.word	.LANCHOR1
 317 009c 00000000 		.word	.LANCHOR2
 318 00a0 00000000 		.word	.LANCHOR3
 319 00a4 00000000 		.word	.LANCHOR4
 320              		.cfi_endproc
 321              	.LFE4260:
 323              		.section	.text.startup.main,"ax",%progbits
 324              		.align	1
 325              		.p2align 2,,3
 326              		.global	main
 327              		.syntax unified
 328              		.thumb
 329              		.thumb_func
 330              		.fpu fpv5-d16
 332              	main:
 333              	.LFB4261:
ARM GAS  C:\Users\TT\AppData\Local\Temp\ccQ2NNqc.s 			page 17


  39:bass_stompbox.cpp **** 
  40:bass_stompbox.cpp **** 
  41:bass_stompbox.cpp **** int main(void)
  42:bass_stompbox.cpp **** {
 334              		.loc 10 42 1 is_stmt 1 view -0
 335              		.cfi_startproc
 336              		@ args = 0, pretend = 0, frame = 0
 337              		@ frame_needed = 0, uses_anonymous_args = 0
  43:bass_stompbox.cpp ****     hw.Configure();
 338              		.loc 10 43 5 view .LVU83
  42:bass_stompbox.cpp ****     hw.Configure();
 339              		.loc 10 42 1 is_stmt 0 view .LVU84
 340 0000 F8B5     		push	{r3, r4, r5, r6, r7, lr}
 341              		.cfi_def_cfa_offset 24
 342              		.cfi_offset 3, -24
 343              		.cfi_offset 4, -20
 344              		.cfi_offset 5, -16
 345              		.cfi_offset 6, -12
 346              		.cfi_offset 7, -8
 347              		.cfi_offset 14, -4
 348              		.loc 10 43 17 view .LVU85
 349 0002 2848     		ldr	r0, .L17
 350 0004 FFF7FEFF 		bl	_ZN5daisy9DaisySeed9ConfigureEv
 351              	.LVL12:
  44:bass_stompbox.cpp ****     hw.Init();
 352              		.loc 10 44 5 is_stmt 1 view .LVU86
 353              		.loc 10 44 12 is_stmt 0 view .LVU87
 354 0008 0021     		movs	r1, #0
 355 000a 2648     		ldr	r0, .L17
 356 000c FFF7FEFF 		bl	_ZN5daisy9DaisySeed4InitEb
 357              	.LVL13:
  45:bass_stompbox.cpp ****     petal.Init();
 358              		.loc 10 45 5 is_stmt 1 view .LVU88
 359              		.loc 10 45 15 is_stmt 0 view .LVU89
 360 0010 0021     		movs	r1, #0
 361 0012 2548     		ldr	r0, .L17+4
 362 0014 FFF7FEFF 		bl	_ZN5daisy10DaisyPetal4InitEb
 363              	.LVL14:
  46:bass_stompbox.cpp **** 
  47:bass_stompbox.cpp ****     size_t size_preset = sizeof(presets[0]) * WAVE_LENGTH;
 364              		.loc 10 47 5 is_stmt 1 view .LVU90
  48:bass_stompbox.cpp ****     /** Grab physical address from pointer */
  49:bass_stompbox.cpp ****     size_t address = (size_t)qspi_buffer;
 365              		.loc 10 49 5 view .LVU91
  50:bass_stompbox.cpp ****     /** Erase qspi and then write that wave */
  51:bass_stompbox.cpp ****     hw.qspi.Erase(address, address + size_preset);
 366              		.loc 10 51 5 view .LVU92
 367              		.loc 10 51 18 is_stmt 0 view .LVU93
 368 0018 244A     		ldr	r2, .L17+8
 369 001a 2548     		ldr	r0, .L17+12
 370 001c A2F11001 		sub	r1, r2, #16
 371 0020 244F     		ldr	r7, .L17+16
 372 0022 FFF7FEFF 		bl	_ZN5daisy10QSPIHandle5EraseEmm
 373              	.LVL15:
  52:bass_stompbox.cpp ****     hw.qspi.Write(address, size_preset, (uint8_t *)presets);
 374              		.loc 10 52 5 is_stmt 1 view .LVU94
 375              		.loc 10 52 18 is_stmt 0 view .LVU95
ARM GAS  C:\Users\TT\AppData\Local\Temp\ccQ2NNqc.s 			page 18


 376 0026 2449     		ldr	r1, .L17+20
 377 0028 244B     		ldr	r3, .L17+24
 378 002a 1022     		movs	r2, #16
 379 002c 2048     		ldr	r0, .L17+12
 380 002e FFF7FEFF 		bl	_ZN5daisy10QSPIHandle5WriteEmmPh
 381              	.LVL16:
  53:bass_stompbox.cpp **** 
  54:bass_stompbox.cpp **** 
  55:bass_stompbox.cpp ****     petal.StartAdc();
 382              		.loc 10 55 5 is_stmt 1 view .LVU96
 383              		.loc 10 55 19 is_stmt 0 view .LVU97
 384 0032 1D48     		ldr	r0, .L17+4
 385 0034 FFF7FEFF 		bl	_ZN5daisy10DaisyPetal8StartAdcEv
 386              	.LVL17:
  56:bass_stompbox.cpp ****     petal.StartAudio(AudioCallback);
 387              		.loc 10 56 5 is_stmt 1 view .LVU98
 388              		.loc 10 56 21 is_stmt 0 view .LVU99
 389 0038 2149     		ldr	r1, .L17+28
 390 003a 1B48     		ldr	r0, .L17+4
 391 003c 214E     		ldr	r6, .L17+32
 392 003e 224D     		ldr	r5, .L17+36
 393 0040 224C     		ldr	r4, .L17+40
 394 0042 FFF7FEFF 		bl	_ZN5daisy10DaisyPetal10StartAudioEPFvPKfPfjE
 395              	.LVL18:
 396              	.L15:
  57:bass_stompbox.cpp **** 
  58:bass_stompbox.cpp ****     while(1)
 397              		.loc 10 58 5 is_stmt 1 discriminator 1 view .LVU100
  59:bass_stompbox.cpp ****     {
  60:bass_stompbox.cpp ****         petal.DelayMs(6);
 398              		.loc 10 60 9 discriminator 1 view .LVU101
 399              		.loc 10 60 22 is_stmt 0 discriminator 1 view .LVU102
 400 0046 0621     		movs	r1, #6
 401 0048 1748     		ldr	r0, .L17+4
 402 004a FFF7FEFF 		bl	_ZN5daisy10DaisyPetal7DelayMsEj
 403              	.LVL19:
  61:bass_stompbox.cpp ****         petal.ClearLeds();
 404              		.loc 10 61 9 is_stmt 1 discriminator 1 view .LVU103
 405              		.loc 10 61 24 is_stmt 0 discriminator 1 view .LVU104
 406 004e 1648     		ldr	r0, .L17+4
 407 0050 FFF7FEFF 		bl	_ZN5daisy10DaisyPetal9ClearLedsEv
 408              	.LVL20:
  62:bass_stompbox.cpp **** 
  63:bass_stompbox.cpp ****         petal.SetFootswitchLed(petal.FOOTSWITCH_LED_1, compressor_ON);
 409              		.loc 10 63 9 is_stmt 1 discriminator 1 view .LVU105
 410              		.loc 10 63 31 is_stmt 0 discriminator 1 view .LVU106
 411 0054 3B78     		ldrb	r3, [r7]	@ zero_extendqisi2
 412 0056 0021     		movs	r1, #0
 413 0058 1348     		ldr	r0, .L17+4
 414 005a 00EE103A 		vmov	s0, r3	@ int
 415 005e B8EE400A 		vcvt.f32.u32	s0, s0
 416 0062 FFF7FEFF 		bl	_ZN5daisy10DaisyPetal16SetFootswitchLedENS0_13FootswitchLedEf
 417              	.LVL21:
  64:bass_stompbox.cpp ****         petal.SetFootswitchLed(petal.FOOTSWITCH_LED_2, flanger_ON);
 418              		.loc 10 64 9 is_stmt 1 discriminator 1 view .LVU107
 419              		.loc 10 64 31 is_stmt 0 discriminator 1 view .LVU108
 420 0066 3378     		ldrb	r3, [r6]	@ zero_extendqisi2
ARM GAS  C:\Users\TT\AppData\Local\Temp\ccQ2NNqc.s 			page 19


 421 0068 0121     		movs	r1, #1
 422 006a 0F48     		ldr	r0, .L17+4
 423 006c 00EE103A 		vmov	s0, r3	@ int
 424 0070 B8EE400A 		vcvt.f32.u32	s0, s0
 425 0074 FFF7FEFF 		bl	_ZN5daisy10DaisyPetal16SetFootswitchLedENS0_13FootswitchLedEf
 426              	.LVL22:
  65:bass_stompbox.cpp ****         petal.SetFootswitchLed(petal.FOOTSWITCH_LED_3, tone_ON);
 427              		.loc 10 65 9 is_stmt 1 discriminator 1 view .LVU109
 428              		.loc 10 65 31 is_stmt 0 discriminator 1 view .LVU110
 429 0078 2B78     		ldrb	r3, [r5]	@ zero_extendqisi2
 430 007a 0221     		movs	r1, #2
 431 007c 0A48     		ldr	r0, .L17+4
 432 007e 00EE103A 		vmov	s0, r3	@ int
 433 0082 B8EE400A 		vcvt.f32.u32	s0, s0
 434 0086 FFF7FEFF 		bl	_ZN5daisy10DaisyPetal16SetFootswitchLedENS0_13FootswitchLedEf
 435              	.LVL23:
  66:bass_stompbox.cpp ****         petal.SetFootswitchLed(petal.FOOTSWITCH_LED_3, osc_ON);
 436              		.loc 10 66 9 is_stmt 1 discriminator 1 view .LVU111
 437              		.loc 10 66 31 is_stmt 0 discriminator 1 view .LVU112
 438 008a 2378     		ldrb	r3, [r4]	@ zero_extendqisi2
 439 008c 0221     		movs	r1, #2
 440 008e 0648     		ldr	r0, .L17+4
 441 0090 00EE103A 		vmov	s0, r3	@ int
 442 0094 B8EE400A 		vcvt.f32.u32	s0, s0
 443 0098 FFF7FEFF 		bl	_ZN5daisy10DaisyPetal16SetFootswitchLedENS0_13FootswitchLedEf
 444              	.LVL24:
  67:bass_stompbox.cpp **** 
  68:bass_stompbox.cpp ****         petal.UpdateLeds();
 445              		.loc 10 68 9 is_stmt 1 discriminator 1 view .LVU113
 446              		.loc 10 68 25 is_stmt 0 discriminator 1 view .LVU114
 447 009c 0248     		ldr	r0, .L17+4
 448 009e FFF7FEFF 		bl	_ZN5daisy10DaisyPetal10UpdateLedsEv
 449              	.LVL25:
  58:bass_stompbox.cpp ****     {
 450              		.loc 10 58 5 is_stmt 1 discriminator 1 view .LVU115
 451 00a2 D0E7     		b	.L15
 452              	.L18:
 453              		.align	2
 454              	.L17:
 455 00a4 00000000 		.word	.LANCHOR5
 456 00a8 00000000 		.word	.LANCHOR0
 457 00ac 10000000 		.word	.LANCHOR6+16
 458 00b0 04000000 		.word	.LANCHOR5+4
 459 00b4 00000000 		.word	.LANCHOR1
 460 00b8 00000000 		.word	.LANCHOR6
 461 00bc 00000000 		.word	.LANCHOR7
 462 00c0 00000000 		.word	_ZL13AudioCallbackPKfPfj
 463 00c4 00000000 		.word	.LANCHOR2
 464 00c8 00000000 		.word	.LANCHOR3
 465 00cc 00000000 		.word	.LANCHOR4
 466              		.cfi_endproc
 467              	.LFE4261:
 469              		.section	.text.startup._GLOBAL__sub_I_hw,"ax",%progbits
 470              		.align	1
 471              		.p2align 2,,3
 472              		.syntax unified
 473              		.thumb
ARM GAS  C:\Users\TT\AppData\Local\Temp\ccQ2NNqc.s 			page 20


 474              		.thumb_func
 475              		.fpu fpv5-d16
 477              	_GLOBAL__sub_I_hw:
 478              	.LFB4818:
  69:bass_stompbox.cpp ****     }
  70:bass_stompbox.cpp **** }...
 479              		.loc 10 70 1 view -0
 480              		.cfi_startproc
 481              		@ args = 0, pretend = 0, frame = 0
 482              		@ frame_needed = 0, uses_anonymous_args = 0
 483              	.LBB319:
 484              	.LBI319:
 485              		.loc 10 70 1 view .LVU117
 486              	.LVL26:
 487              	.LBB320:
 488              	.LBB321:
 489              	.LBI321:
  21:../../libdaisy/src/daisy_seed.h ****     ~DaisySeed() {}
 490              		.loc 1 21 5 view .LVU118
 491              	.LBB322:
 492              	.LBB323:
 493              	.LBI323:
 494              		.file 11 "../../libdaisy/src/per/qspi.h"
   1:../../libdaisy/src/per/qspi.h **** #ifndef DSY_QSPI
   2:../../libdaisy/src/per/qspi.h **** #define DSY_QSPI /**< Macro */
   3:../../libdaisy/src/per/qspi.h **** 
   4:../../libdaisy/src/per/qspi.h **** #include <cstdint>
   5:../../libdaisy/src/per/qspi.h **** #include "daisy_core.h" // Added for dsy_gpio_pin typedef
   6:../../libdaisy/src/per/qspi.h **** 
   7:../../libdaisy/src/per/qspi.h **** #define DSY_QSPI_TEXT       \
   8:../../libdaisy/src/per/qspi.h ****     __attribute__((section( \
   9:../../libdaisy/src/per/qspi.h ****         ".qspiflash_text"))) /**< used for reading memory in memory_mapped mode. */
  10:../../libdaisy/src/per/qspi.h **** #define DSY_QSPI_DATA       \
  11:../../libdaisy/src/per/qspi.h ****     __attribute__((section( \
  12:../../libdaisy/src/per/qspi.h ****         ".qspiflash_data"))) /**< used for reading memory in memory_mapped mode. */
  13:../../libdaisy/src/per/qspi.h **** #define DSY_QSPI_BSS        \
  14:../../libdaisy/src/per/qspi.h ****     __attribute__((section( \
  15:../../libdaisy/src/per/qspi.h ****         ".qspiflash_bss"))) /**< used for reading memory in memory_mapped mode. */
  16:../../libdaisy/src/per/qspi.h **** 
  17:../../libdaisy/src/per/qspi.h **** namespace daisy
  18:../../libdaisy/src/per/qspi.h **** {
  19:../../libdaisy/src/per/qspi.h **** /** @addtogroup serial
  20:../../libdaisy/src/per/qspi.h **** @{
  21:../../libdaisy/src/per/qspi.h **** */
  22:../../libdaisy/src/per/qspi.h **** 
  23:../../libdaisy/src/per/qspi.h **** /** 
  24:../../libdaisy/src/per/qspi.h ****  Driver for QSPI peripheral to interface with external flash memory. \n 
  25:../../libdaisy/src/per/qspi.h ****     Currently supported QSPI Devices: \n 
  26:../../libdaisy/src/per/qspi.h ****     * IS25LP080D
  27:../../libdaisy/src/per/qspi.h **** */
  28:../../libdaisy/src/per/qspi.h **** class QSPIHandle
  29:../../libdaisy/src/per/qspi.h **** {
  30:../../libdaisy/src/per/qspi.h ****   public:
  31:../../libdaisy/src/per/qspi.h ****     enum Result
  32:../../libdaisy/src/per/qspi.h ****     {
  33:../../libdaisy/src/per/qspi.h ****         OK = 0,
  34:../../libdaisy/src/per/qspi.h ****         ERR
ARM GAS  C:\Users\TT\AppData\Local\Temp\ccQ2NNqc.s 			page 21


  35:../../libdaisy/src/per/qspi.h ****     };
  36:../../libdaisy/src/per/qspi.h **** 
  37:../../libdaisy/src/per/qspi.h ****     /** Indicates the current status of the module. 
  38:../../libdaisy/src/per/qspi.h ****          *  Warnings are indicated by a leading W.
  39:../../libdaisy/src/per/qspi.h ****          *  Errors are indicated by a leading E and cause an immediate exit.
  40:../../libdaisy/src/per/qspi.h ****          * 
  41:../../libdaisy/src/per/qspi.h ****          *  \param GOOD - No errors have been reported.
  42:../../libdaisy/src/per/qspi.h ****          *  \param E_HAL_ERROR - HAL code did not return HAL_OK.
  43:../../libdaisy/src/per/qspi.h ****          *  \param E_SWITCHING_MODES - An error was encountered while switching QSPI peripheral mod
  44:../../libdaisy/src/per/qspi.h ****          *  \param E_INVALID_MODE - QSPI should not be written to while the program is executing fr
  45:../../libdaisy/src/per/qspi.h ****          */
  46:../../libdaisy/src/per/qspi.h ****     enum Status
  47:../../libdaisy/src/per/qspi.h ****     {
  48:../../libdaisy/src/per/qspi.h ****         GOOD = 0,
  49:../../libdaisy/src/per/qspi.h ****         E_HAL_ERROR,
  50:../../libdaisy/src/per/qspi.h ****         E_SWITCHING_MODES,
  51:../../libdaisy/src/per/qspi.h ****         E_INVALID_MODE,
  52:../../libdaisy/src/per/qspi.h ****     };
  53:../../libdaisy/src/per/qspi.h **** 
  54:../../libdaisy/src/per/qspi.h ****     /** Configuration structure for interfacing with QSPI Driver */
  55:../../libdaisy/src/per/qspi.h ****     struct Config
  56:../../libdaisy/src/per/qspi.h ****     {
  57:../../libdaisy/src/per/qspi.h ****         /** Flash Devices supported. (Both of these are more-or-less the same, just different sizes
  58:../../libdaisy/src/per/qspi.h ****         enum Device
  59:../../libdaisy/src/per/qspi.h ****         {
  60:../../libdaisy/src/per/qspi.h ****             IS25LP080D,  /**< & */
  61:../../libdaisy/src/per/qspi.h ****             IS25LP064A,  /**< & */
  62:../../libdaisy/src/per/qspi.h ****             DEVICE_LAST, /**< & */
  63:../../libdaisy/src/per/qspi.h ****         };
  64:../../libdaisy/src/per/qspi.h **** 
  65:../../libdaisy/src/per/qspi.h ****         /** 
  66:../../libdaisy/src/per/qspi.h ****         Modes of operation.
  67:../../libdaisy/src/per/qspi.h ****         Memory Mapped mode: QSPI configured so that the QSPI can be
  68:../../libdaisy/src/per/qspi.h ****         read from starting address 0x90000000. Writing is not
  69:../../libdaisy/src/per/qspi.h ****         possible in this mode. \n 
  70:../../libdaisy/src/per/qspi.h ****         Indirect Polling mode: Device driver enabled. 
  71:../../libdaisy/src/per/qspi.h ****         */
  72:../../libdaisy/src/per/qspi.h ****         enum Mode
  73:../../libdaisy/src/per/qspi.h ****         {
  74:../../libdaisy/src/per/qspi.h ****             MEMORY_MAPPED,    /**< & */
  75:../../libdaisy/src/per/qspi.h ****             INDIRECT_POLLING, /**< & */
  76:../../libdaisy/src/per/qspi.h ****             MODE_LAST,
  77:../../libdaisy/src/per/qspi.h ****         };
  78:../../libdaisy/src/per/qspi.h **** 
  79:../../libdaisy/src/per/qspi.h ****         //SCK,  CE# (active low)
  80:../../libdaisy/src/per/qspi.h ****         struct
  81:../../libdaisy/src/per/qspi.h ****         {
  82:../../libdaisy/src/per/qspi.h ****             dsy_gpio_pin io0; /**< & */
  83:../../libdaisy/src/per/qspi.h ****             dsy_gpio_pin io1; /**< & */
  84:../../libdaisy/src/per/qspi.h ****             dsy_gpio_pin io2; /**< & */
  85:../../libdaisy/src/per/qspi.h ****             dsy_gpio_pin io3; /**< & */
  86:../../libdaisy/src/per/qspi.h ****             dsy_gpio_pin clk; /**< & */
  87:../../libdaisy/src/per/qspi.h ****             dsy_gpio_pin ncs; /**< & */
  88:../../libdaisy/src/per/qspi.h ****         } pin_config;
  89:../../libdaisy/src/per/qspi.h **** 
  90:../../libdaisy/src/per/qspi.h ****         Device device;
  91:../../libdaisy/src/per/qspi.h ****         Mode   mode;
ARM GAS  C:\Users\TT\AppData\Local\Temp\ccQ2NNqc.s 			page 22


  92:../../libdaisy/src/per/qspi.h ****     };
  93:../../libdaisy/src/per/qspi.h **** 
  94:../../libdaisy/src/per/qspi.h ****     /** 
  95:../../libdaisy/src/per/qspi.h ****         Initializes QSPI peripheral, and Resets, and prepares memory for access.
  96:../../libdaisy/src/per/qspi.h ****         \param config should be populated with the mode, device and pin_config before calling this 
  97:../../libdaisy/src/per/qspi.h ****         \return Result::OK or Result::ERR
  98:../../libdaisy/src/per/qspi.h ****         */
  99:../../libdaisy/src/per/qspi.h ****     Result Init(const Config& config);
 100:../../libdaisy/src/per/qspi.h **** 
 101:../../libdaisy/src/per/qspi.h ****     /** Returns the current config. */
 102:../../libdaisy/src/per/qspi.h ****     const Config& GetConfig() const;
 103:../../libdaisy/src/per/qspi.h **** 
 104:../../libdaisy/src/per/qspi.h ****     // Couldn't this just be called before anything else in init? That
 105:../../libdaisy/src/per/qspi.h ****     // would make manually calling it unnecessary.
 106:../../libdaisy/src/per/qspi.h ****     /** 
 107:../../libdaisy/src/per/qspi.h ****         Deinitializes the peripheral
 108:../../libdaisy/src/per/qspi.h ****         This should be called before reinitializing QSPI in a different mode.
 109:../../libdaisy/src/per/qspi.h ****         \return Result::OK or Result::ERR
 110:../../libdaisy/src/per/qspi.h ****         */
 111:../../libdaisy/src/per/qspi.h ****     Result Deinit();
 112:../../libdaisy/src/per/qspi.h **** 
 113:../../libdaisy/src/per/qspi.h ****     /** 
 114:../../libdaisy/src/per/qspi.h ****         Writes a single page to to the specified address on the QSPI chip.
 115:../../libdaisy/src/per/qspi.h ****         For IS25LP*, page size is 256 bytes.
 116:../../libdaisy/src/per/qspi.h ****         \param address Address to write to
 117:../../libdaisy/src/per/qspi.h ****         \param size Buffer size
 118:../../libdaisy/src/per/qspi.h ****         \param buffer Buffer to write
 119:../../libdaisy/src/per/qspi.h ****         \return Result::OK or Result::ERR
 120:../../libdaisy/src/per/qspi.h ****         */
 121:../../libdaisy/src/per/qspi.h ****     Result WritePage(uint32_t address, uint32_t size, uint8_t* buffer);
 122:../../libdaisy/src/per/qspi.h **** 
 123:../../libdaisy/src/per/qspi.h ****     /** 
 124:../../libdaisy/src/per/qspi.h ****         Writes data in buffer to to the QSPI. Starting at address to address+size 
 125:../../libdaisy/src/per/qspi.h ****         \param address Address to write to
 126:../../libdaisy/src/per/qspi.h ****         \param size Buffer size
 127:../../libdaisy/src/per/qspi.h ****         \param buffer Buffer to write
 128:../../libdaisy/src/per/qspi.h ****         \return Result::OK or Result::ERR
 129:../../libdaisy/src/per/qspi.h ****         */
 130:../../libdaisy/src/per/qspi.h ****     Result Write(uint32_t address, uint32_t size, uint8_t* buffer);
 131:../../libdaisy/src/per/qspi.h **** 
 132:../../libdaisy/src/per/qspi.h ****     /** 
 133:../../libdaisy/src/per/qspi.h ****         Erases the area specified on the chip.
 134:../../libdaisy/src/per/qspi.h ****         Erasures will happen by 4K, 32K or 64K increments.
 135:../../libdaisy/src/per/qspi.h ****         Smallest erase possible is 4kB at a time. (on IS25LP*)
 136:../../libdaisy/src/per/qspi.h ****         \param start_addr Address to begin erasing from
 137:../../libdaisy/src/per/qspi.h ****         \param end_addr  Address to stop erasing at
 138:../../libdaisy/src/per/qspi.h ****         \return Result::OK or Result::ERR
 139:../../libdaisy/src/per/qspi.h ****         */
 140:../../libdaisy/src/per/qspi.h ****     Result Erase(uint32_t start_addr, uint32_t end_addr);
 141:../../libdaisy/src/per/qspi.h **** 
 142:../../libdaisy/src/per/qspi.h ****     /**  
 143:../../libdaisy/src/per/qspi.h ****          Erases a single sector of the chip.  
 144:../../libdaisy/src/per/qspi.h ****         TODO: Document the size of this function. 
 145:../../libdaisy/src/per/qspi.h ****         \param addr Address of sector to erase
 146:../../libdaisy/src/per/qspi.h ****         \return Result::OK or Result::ERR
 147:../../libdaisy/src/per/qspi.h ****         */
 148:../../libdaisy/src/per/qspi.h ****     Result EraseSector(uint32_t address);
ARM GAS  C:\Users\TT\AppData\Local\Temp\ccQ2NNqc.s 			page 23


 149:../../libdaisy/src/per/qspi.h **** 
 150:../../libdaisy/src/per/qspi.h ****     /** Returns the current class status. Useful for debugging.
 151:../../libdaisy/src/per/qspi.h ****      *  \returns Status
 152:../../libdaisy/src/per/qspi.h ****      */
 153:../../libdaisy/src/per/qspi.h ****     Status GetStatus();
 154:../../libdaisy/src/per/qspi.h **** 
 155:../../libdaisy/src/per/qspi.h ****     QSPIHandle() : pimpl_(nullptr) {}
 495              		.loc 11 155 5 view .LVU119
 496              	.LBE323:
 497              	.LBE322:
 498              	.LBE321:
 499              	.LBE320:
 500              	.LBE319:
 501              		.loc 10 70 1 is_stmt 0 view .LVU120
 502 0000 70B5     		push	{r4, r5, r6, lr}
 503              		.cfi_def_cfa_offset 16
 504              		.cfi_offset 4, -16
 505              		.cfi_offset 5, -12
 506              		.cfi_offset 6, -8
 507              		.cfi_offset 14, -4
 508              	.LBB388:
 509              	.LBB384:
 510              	.LBB341:
 511              	.LBB339:
 512              	.LBB328:
 513              	.LBB324:
 514              	.LBB325:
 515              		.loc 11 155 34 view .LVU121
 516 0002 0F48     		ldr	r0, .L21
 517 0004 0024     		movs	r4, #0
 518              	.LBE325:
 519              	.LBE324:
 520              	.LBE328:
 521              	.LBE339:
 522              	.LBE341:
  10:bass_stompbox.cpp **** DaisySeed  hw;
 523              		.loc 10 10 12 view .LVU122
 524 0006 0F4E     		ldr	r6, .L21+4
 525              	.LBB342:
 526              	.LBB343:
 527              	.LBB344:
 528              	.LBB345:
 529              	.LBB346:
 530              	.LBB347:
 531              	.LBB348:
 532              		.loc 11 155 34 view .LVU123
 533 0008 0F4D     		ldr	r5, .L21+8
 534              	.LBE348:
 535              	.LBE347:
 536              	.LBE346:
 537              	.LBE345:
 538              	.LBE344:
 539              	.LBE343:
 540              	.LBE342:
  10:bass_stompbox.cpp **** DaisySeed  hw;
 541              		.loc 10 10 12 view .LVU124
 542 000a 3246     		mov	r2, r6
ARM GAS  C:\Users\TT\AppData\Local\Temp\ccQ2NNqc.s 			page 24


 543 000c 0F49     		ldr	r1, .L21+12
 544              	.LBB380:
 545              	.LBB340:
 546              	.LBB329:
 547              	.LBB327:
 548              	.LBB326:
 549              		.loc 11 155 34 view .LVU125
 550 000e 4460     		str	r4, [r0, #4]
 551              	.LVL27:
 552              		.loc 11 155 34 view .LVU126
 553              	.LBE326:
 554              	.LBE327:
 555              	.LBE329:
 556              	.LBB330:
 557              	.LBI330:
  62:../../libdaisy/src/hid/audio.h ****     ~AudioHandle() {}
 558              		.loc 5 62 5 is_stmt 1 view .LVU127
 559              	.LBB331:
 560              	.LBB332:
  62:../../libdaisy/src/hid/audio.h ****     ~AudioHandle() {}
 561              		.loc 5 62 35 is_stmt 0 view .LVU128
 562 0010 8461     		str	r4, [r0, #24]
 563              	.LVL28:
  62:../../libdaisy/src/hid/audio.h ****     ~AudioHandle() {}
 564              		.loc 5 62 35 view .LVU129
 565              	.LBE332:
 566              	.LBE331:
 567              	.LBE330:
 568              	.LBB333:
 569              	.LBI333:
  84:../../libdaisy/src/per/adc.h ****     ~AdcHandle() {}
 570              		.loc 4 84 5 is_stmt 1 view .LVU130
  84:../../libdaisy/src/per/adc.h ****     ~AdcHandle() {}
 571              		.loc 4 84 5 is_stmt 0 view .LVU131
 572              	.LBE333:
 573              	.LBB334:
 574              	.LBI334:
 575              		.file 12 "../../libdaisy/src/per/dac.h"
   1:../../libdaisy/src/per/dac.h **** #pragma once
   2:../../libdaisy/src/per/dac.h **** #ifndef DSY_DAC_H
   3:../../libdaisy/src/per/dac.h **** #define DSY_DAC_H
   4:../../libdaisy/src/per/dac.h **** 
   5:../../libdaisy/src/per/dac.h **** #include "daisy_core.h"
   6:../../libdaisy/src/per/dac.h **** 
   7:../../libdaisy/src/per/dac.h **** namespace daisy
   8:../../libdaisy/src/per/dac.h **** {
   9:../../libdaisy/src/per/dac.h **** /** DAC handle for Built-in DAC Peripheral 
  10:../../libdaisy/src/per/dac.h ****  ** 
  11:../../libdaisy/src/per/dac.h ****  ** For now only Normal Mode is supported,
  12:../../libdaisy/src/per/dac.h ****  ** Sample and hold mode provides reduced power consumption, but requires a bit more setup.
  13:../../libdaisy/src/per/dac.h ****  **
  14:../../libdaisy/src/per/dac.h ****  ** For now connecting the DAC through other internal periphearls is also not supported.
  15:../../libdaisy/src/per/dac.h ****  **
  16:../../libdaisy/src/per/dac.h ****  ** Since the DAC channels have dedicated pins we don't need to pass in a pin config like with
  17:../../libdaisy/src/per/dac.h ****  ** other modules. However, it is still important to not try to use the DAC pins for anything else.
  18:../../libdaisy/src/per/dac.h ****  ** DAC Channel 1 is on PA4, and DAC Channel 2 is on PA5
  19:../../libdaisy/src/per/dac.h ****  ***/
ARM GAS  C:\Users\TT\AppData\Local\Temp\ccQ2NNqc.s 			page 25


  20:../../libdaisy/src/per/dac.h **** class DacHandle
  21:../../libdaisy/src/per/dac.h **** {
  22:../../libdaisy/src/per/dac.h ****   public:
  23:../../libdaisy/src/per/dac.h ****     /** Return Values for the DacHandle class */
  24:../../libdaisy/src/per/dac.h ****     enum class Result
  25:../../libdaisy/src/per/dac.h ****     {
  26:../../libdaisy/src/per/dac.h ****         OK,
  27:../../libdaisy/src/per/dac.h ****         ERR,
  28:../../libdaisy/src/per/dac.h ****     };
  29:../../libdaisy/src/per/dac.h **** 
  30:../../libdaisy/src/per/dac.h ****     /** Selects which channel(s) will be configured for use. */
  31:../../libdaisy/src/per/dac.h ****     enum class Channel
  32:../../libdaisy/src/per/dac.h ****     {
  33:../../libdaisy/src/per/dac.h ****         ONE,
  34:../../libdaisy/src/per/dac.h ****         TWO,
  35:../../libdaisy/src/per/dac.h ****         BOTH,
  36:../../libdaisy/src/per/dac.h ****     };
  37:../../libdaisy/src/per/dac.h **** 
  38:../../libdaisy/src/per/dac.h ****     /** Sets the Mode for the DAC channels.
  39:../../libdaisy/src/per/dac.h ****      **
  40:../../libdaisy/src/per/dac.h ****      ** Polling mode uses the blocking mode to transmit a single value at a time.
  41:../../libdaisy/src/per/dac.h ****      **
  42:../../libdaisy/src/per/dac.h ****      ** DMA mode uses a buffer, and periodically transmits it triggering a 
  43:../../libdaisy/src/per/dac.h ****      ** callback to fill the buffer when it is ready for more samples.
  44:../../libdaisy/src/per/dac.h ****      ***/
  45:../../libdaisy/src/per/dac.h ****     enum class Mode
  46:../../libdaisy/src/per/dac.h ****     {
  47:../../libdaisy/src/per/dac.h ****         POLLING,
  48:../../libdaisy/src/per/dac.h ****         DMA,
  49:../../libdaisy/src/per/dac.h ****     };
  50:../../libdaisy/src/per/dac.h **** 
  51:../../libdaisy/src/per/dac.h ****     /** Sets the number of bits per sample transmitted out of the DAC.
  52:../../libdaisy/src/per/dac.h ****      ** The output range will be: 0V - VDDA
  53:../../libdaisy/src/per/dac.h ****      ** The resolution will be roughly: bitdepth / (VDDA - 0V) 
  54:../../libdaisy/src/per/dac.h ****      ***/
  55:../../libdaisy/src/per/dac.h ****     enum class BitDepth
  56:../../libdaisy/src/per/dac.h ****     {
  57:../../libdaisy/src/per/dac.h ****         BITS_8,
  58:../../libdaisy/src/per/dac.h ****         BITS_12
  59:../../libdaisy/src/per/dac.h ****     };
  60:../../libdaisy/src/per/dac.h **** 
  61:../../libdaisy/src/per/dac.h ****     /** Sets whether the DAC output is buffered for higher drive ability. */
  62:../../libdaisy/src/per/dac.h ****     enum class BufferState
  63:../../libdaisy/src/per/dac.h ****     {
  64:../../libdaisy/src/per/dac.h ****         ENABLED,
  65:../../libdaisy/src/per/dac.h ****         DISABLED,
  66:../../libdaisy/src/per/dac.h ****     };
  67:../../libdaisy/src/per/dac.h **** 
  68:../../libdaisy/src/per/dac.h ****     /** Configuration structure for initializing the DAC structure. */
  69:../../libdaisy/src/per/dac.h ****     struct Config
  70:../../libdaisy/src/per/dac.h ****     {
  71:../../libdaisy/src/per/dac.h ****         /** Target Samplerate in Hz used to configure the internal 
  72:../../libdaisy/src/per/dac.h ****          ** timebase for DMA mode. Does nothing in POLLING mode.
  73:../../libdaisy/src/per/dac.h ****          ** If the value is 0 at Init time this will default to 48000Hz 
  74:../../libdaisy/src/per/dac.h ****          ** otherwise the driver will attempt meet the target.*/
  75:../../libdaisy/src/per/dac.h ****         uint32_t target_samplerate;
  76:../../libdaisy/src/per/dac.h **** 
ARM GAS  C:\Users\TT\AppData\Local\Temp\ccQ2NNqc.s 			page 26


  77:../../libdaisy/src/per/dac.h ****         Channel     chn;
  78:../../libdaisy/src/per/dac.h ****         Mode        mode;
  79:../../libdaisy/src/per/dac.h ****         BitDepth    bitdepth;
  80:../../libdaisy/src/per/dac.h ****         BufferState buff_state;
  81:../../libdaisy/src/per/dac.h ****     };
  82:../../libdaisy/src/per/dac.h **** 
  83:../../libdaisy/src/per/dac.h ****     DacHandle() : pimpl_(nullptr) {}
 576              		.loc 12 83 5 is_stmt 1 view .LVU132
 577              	.LBB335:
 578              	.LBB336:
 579              		.loc 12 83 33 is_stmt 0 view .LVU133
 580 0012 4462     		str	r4, [r0, #36]
 581              	.LVL29:
 582              		.loc 12 83 33 view .LVU134
 583              	.LBE336:
 584              	.LBE335:
 585              	.LBE334:
 586              	.LBB337:
 587              	.LBI337:
  40:../../libdaisy/src/hid/usb.h **** 
 588              		.loc 3 40 5 is_stmt 1 view .LVU135
  40:../../libdaisy/src/hid/usb.h **** 
 589              		.loc 3 40 5 is_stmt 0 view .LVU136
 590              	.LBE337:
 591              	.LBB338:
 592              	.LBI338:
  69:../../libdaisy/src/sys/system.h ****     ~System() {}
 593              		.loc 2 69 5 is_stmt 1 view .LVU137
  69:../../libdaisy/src/sys/system.h ****     ~System() {}
 594              		.loc 2 69 5 is_stmt 0 view .LVU138
 595              	.LBE338:
 596              	.LBE340:
 597              	.LBE380:
  10:bass_stompbox.cpp **** DaisySeed  hw;
 598              		.loc 10 10 12 view .LVU139
 599 0014 FFF7FEFF 		bl	__aeabi_atexit
 600              	.LVL30:
 601              	.LBB381:
 602              	.LBI342:
  66:../../libdaisy/src/daisy_petal.h ****     /** Destructor */
 603              		.loc 6 66 5 is_stmt 1 view .LVU140
 604              	.LBB377:
 605              	.LBB364:
 606              	.LBI344:
  21:../../libdaisy/src/daisy_seed.h ****     ~DaisySeed() {}
 607              		.loc 1 21 5 view .LVU141
 608              	.LBB362:
 609              	.LBB351:
 610              	.LBI346:
 611              		.loc 11 155 5 view .LVU142
 612              	.LBE351:
 613              	.LBE362:
 614              	.LBE364:
 615              	.LBB365:
 616              	.LBB366:
 617              		.file 13 "../../libdaisy/src/dev/leddriver.h"
   1:../../libdaisy/src/dev/leddriver.h **** #pragma once
ARM GAS  C:\Users\TT\AppData\Local\Temp\ccQ2NNqc.s 			page 27


   2:../../libdaisy/src/dev/leddriver.h **** #ifndef SA_LED_DRIVER_H
   3:../../libdaisy/src/dev/leddriver.h **** #define SA_LED_DRIVER_H /**< & */
   4:../../libdaisy/src/dev/leddriver.h **** 
   5:../../libdaisy/src/dev/leddriver.h **** #ifdef __cplusplus
   6:../../libdaisy/src/dev/leddriver.h **** 
   7:../../libdaisy/src/dev/leddriver.h **** #include <stdint.h>
   8:../../libdaisy/src/dev/leddriver.h **** #include "per/i2c.h"
   9:../../libdaisy/src/dev/leddriver.h **** #include "per/gpio.h"
  10:../../libdaisy/src/dev/leddriver.h **** 
  11:../../libdaisy/src/dev/leddriver.h **** namespace daisy
  12:../../libdaisy/src/dev/leddriver.h **** {
  13:../../libdaisy/src/dev/leddriver.h **** /** LED driver for one or multiple PCA9685 12bit PWM chips connected to
  14:../../libdaisy/src/dev/leddriver.h ****  * a single I2C peripheral.
  15:../../libdaisy/src/dev/leddriver.h ****  * It includes gamma correction from 8bit brightness values but it 
  16:../../libdaisy/src/dev/leddriver.h ****  * can also be supplied with raw 12bit values.
  17:../../libdaisy/src/dev/leddriver.h ****  * This driver uses two buffers - one for drawing, one for transmitting.
  18:../../libdaisy/src/dev/leddriver.h ****  * Multiple LedDriverPca9685 instances can be used at the same time.
  19:../../libdaisy/src/dev/leddriver.h ****  * \param numDrivers    The number of PCA9685 driver attached to the I2C
  20:../../libdaisy/src/dev/leddriver.h ****  *                      peripheral.
  21:../../libdaisy/src/dev/leddriver.h ****  * \param persistentBufferContents If set to true, the current draw buffer 
  22:../../libdaisy/src/dev/leddriver.h ****  *                      contents will be copied to the next draw buffer 
  23:../../libdaisy/src/dev/leddriver.h ****  *                      during SwapBuffersAndTransmit(). Use this, if you plan
  24:../../libdaisy/src/dev/leddriver.h ****  *                      to write single leds at a time. 
  25:../../libdaisy/src/dev/leddriver.h ****  *                      If you will alway update all leds before calling 
  26:../../libdaisy/src/dev/leddriver.h ****  *                      SwapBuffersAndTransmit(), you can set this to false
  27:../../libdaisy/src/dev/leddriver.h ****  *                      and safe some cycles.
  28:../../libdaisy/src/dev/leddriver.h ****  */
  29:../../libdaisy/src/dev/leddriver.h **** template <int numDrivers, bool persistentBufferContents = true>
  30:../../libdaisy/src/dev/leddriver.h **** class LedDriverPca9685
 618              		.loc 13 30 7 is_stmt 0 view .LVU143
 619 0018 0D49     		ldr	r1, .L21+16
 620 001a 4FF40072 		mov	r2, #512
 621 001e 05F2D640 		addw	r0, r5, #1238
 622              	.LBE366:
 623              	.LBE365:
 624              	.LBB371:
 625              	.LBB363:
 626              	.LBB352:
 627              	.LBB350:
 628              	.LBB349:
 629              		.loc 11 155 34 view .LVU144
 630 0022 6C60     		str	r4, [r5, #4]
 631              	.LVL31:
 632              		.loc 11 155 34 view .LVU145
 633              	.LBE349:
 634              	.LBE350:
 635              	.LBE352:
 636              	.LBB353:
 637              	.LBI353:
  62:../../libdaisy/src/hid/audio.h ****     ~AudioHandle() {}
 638              		.loc 5 62 5 is_stmt 1 view .LVU146
 639              	.LBB354:
 640              	.LBB355:
  62:../../libdaisy/src/hid/audio.h ****     ~AudioHandle() {}
 641              		.loc 5 62 35 is_stmt 0 view .LVU147
 642 0024 AC61     		str	r4, [r5, #24]
 643              	.LVL32:
ARM GAS  C:\Users\TT\AppData\Local\Temp\ccQ2NNqc.s 			page 28


  62:../../libdaisy/src/hid/audio.h ****     ~AudioHandle() {}
 644              		.loc 5 62 35 view .LVU148
 645              	.LBE355:
 646              	.LBE354:
 647              	.LBE353:
 648              	.LBB356:
 649              	.LBI356:
  84:../../libdaisy/src/per/adc.h ****     ~AdcHandle() {}
 650              		.loc 4 84 5 is_stmt 1 view .LVU149
  84:../../libdaisy/src/per/adc.h ****     ~AdcHandle() {}
 651              		.loc 4 84 5 is_stmt 0 view .LVU150
 652              	.LBE356:
 653              	.LBB357:
 654              	.LBI357:
 655              		.loc 12 83 5 is_stmt 1 view .LVU151
 656              	.LBB358:
 657              	.LBB359:
 658              		.loc 12 83 33 is_stmt 0 view .LVU152
 659 0026 6C62     		str	r4, [r5, #36]
 660              	.LVL33:
 661              		.loc 12 83 33 view .LVU153
 662              	.LBE359:
 663              	.LBE358:
 664              	.LBE357:
 665              	.LBB360:
 666              	.LBI360:
  40:../../libdaisy/src/hid/usb.h **** 
 667              		.loc 3 40 5 is_stmt 1 view .LVU154
  40:../../libdaisy/src/hid/usb.h **** 
 668              		.loc 3 40 5 is_stmt 0 view .LVU155
 669              	.LBE360:
 670              	.LBB361:
 671              	.LBI361:
  69:../../libdaisy/src/sys/system.h ****     ~System() {}
 672              		.loc 2 69 5 is_stmt 1 view .LVU156
  69:../../libdaisy/src/sys/system.h ****     ~System() {}
 673              		.loc 2 69 5 is_stmt 0 view .LVU157
 674              	.LBE361:
 675              	.LBE363:
 676              	.LBE371:
 677              	.LBB372:
 678              	.LBI372:
  20:../../libdaisy/src/hid/encoder.h ****     ~Encoder() {}
 679              		.loc 8 20 5 is_stmt 1 view .LVU158
 680              	.LBB373:
 681              	.LBB374:
 682              	.LBI374:
  40:../../libdaisy/src/hid/switch.h ****     ~Switch() {}
 683              		.loc 9 40 5 view .LVU159
  40:../../libdaisy/src/hid/switch.h ****     ~Switch() {}
 684              		.loc 9 40 5 is_stmt 0 view .LVU160
 685              	.LBE374:
 686              	.LBE373:
 687              	.LBE372:
 688              	.LBE377:
 689              	.LBE381:
 690              	.LBE384:
ARM GAS  C:\Users\TT\AppData\Local\Temp\ccQ2NNqc.s 			page 29


 691              	.LBE388:
  66:../../libdaisy/src/daisy_petal.h ****     /** Destructor */
 692              		.loc 6 66 18 is_stmt 1 view .LVU161
 693              	.LBB389:
 694              	.LBB385:
 695              	.LBB382:
 696              	.LBB378:
 697              	.LBB375:
 698              	.LBI375:
  21:../../libdaisy/src/hid/ctrl.h ****     /** destructor */
 699              		.loc 7 21 5 view .LVU162
  21:../../libdaisy/src/hid/ctrl.h ****     /** destructor */
 700              		.loc 7 21 5 is_stmt 0 view .LVU163
 701              	.LBE375:
 702              	.LBE378:
 703              	.LBE382:
 704              	.LBE385:
 705              	.LBE389:
  66:../../libdaisy/src/daisy_petal.h ****     /** Destructor */
 706              		.loc 6 66 18 is_stmt 1 view .LVU164
  66:../../libdaisy/src/daisy_petal.h ****     /** Destructor */
 707              		.loc 6 66 18 view .LVU165
  66:../../libdaisy/src/daisy_petal.h ****     /** Destructor */
 708              		.loc 6 66 18 view .LVU166
 709              	.LBB390:
 710              	.LBB386:
 711              	.LBB383:
 712              	.LBB379:
 713              	.LBB376:
 714              	.LBI365:
 715              		.loc 13 30 7 view .LVU167
 716              	.LBB370:
 717              	.LBB367:
 718              	.LBI367:
 719              		.file 14 "../../libdaisy/src/per/i2c.h"
   1:../../libdaisy/src/per/i2c.h **** #pragma once
   2:../../libdaisy/src/per/i2c.h **** #include "daisy_core.h"
   3:../../libdaisy/src/per/i2c.h **** 
   4:../../libdaisy/src/per/i2c.h **** namespace daisy
   5:../../libdaisy/src/per/i2c.h **** {
   6:../../libdaisy/src/per/i2c.h **** /** A handle for interacting with an I2C peripheral. This is a dumb
   7:../../libdaisy/src/per/i2c.h ****  *  gateway that internally points to one of the four I2C peripherals
   8:../../libdaisy/src/per/i2c.h ****  *  after it was initialised. It can then be copied and passed around.
   9:../../libdaisy/src/per/i2c.h ****  *  Use an I2CHandle like this:
  10:../../libdaisy/src/per/i2c.h ****  *  
  11:../../libdaisy/src/per/i2c.h ****  *      // setup the configuration
  12:../../libdaisy/src/per/i2c.h ****  *      I2CHandle::Config i2c_conf;
  13:../../libdaisy/src/per/i2c.h ****  *      i2c_conf.periph = I2CHandle::Config::Peripheral::I2C_1;
  14:../../libdaisy/src/per/i2c.h ****  *      i2c_conf.speed  = I2CHandle::Config::Speed::I2C_400KHZ;
  15:../../libdaisy/src/per/i2c.h ****  *      i2c_conf.mode   = I2CHandle::Config::Mode::Master;
  16:../../libdaisy/src/per/i2c.h ****  *      i2c_conf.pin_config.scl  = {DSY_GPIOB, 8};
  17:../../libdaisy/src/per/i2c.h ****  *      i2c_conf.pin_config.sda  = {DSY_GPIOB, 9};
  18:../../libdaisy/src/per/i2c.h ****  *      // initialise the peripheral
  19:../../libdaisy/src/per/i2c.h ****  *      I2CHandle i2c;
  20:../../libdaisy/src/per/i2c.h ****  *      i2c.Init(i2c_conf);
  21:../../libdaisy/src/per/i2c.h ****  *      // now i2c points to the corresponding peripheral and can be used.
  22:../../libdaisy/src/per/i2c.h ****  *      i2c.TransmitBlocking( ... );
ARM GAS  C:\Users\TT\AppData\Local\Temp\ccQ2NNqc.s 			page 30


  23:../../libdaisy/src/per/i2c.h ****  */
  24:../../libdaisy/src/per/i2c.h **** class I2CHandle
  25:../../libdaisy/src/per/i2c.h **** {
  26:../../libdaisy/src/per/i2c.h ****   public:
  27:../../libdaisy/src/per/i2c.h ****     /** Contains settings for initialising an I2C interface. */
  28:../../libdaisy/src/per/i2c.h ****     struct Config
  29:../../libdaisy/src/per/i2c.h ****     {
  30:../../libdaisy/src/per/i2c.h ****         /** Specifies whether the interface will operate in master or slave mode. */
  31:../../libdaisy/src/per/i2c.h ****         enum class Mode
  32:../../libdaisy/src/per/i2c.h ****         {
  33:../../libdaisy/src/per/i2c.h ****             I2C_MASTER,
  34:../../libdaisy/src/per/i2c.h ****             I2C_SLAVE,
  35:../../libdaisy/src/per/i2c.h ****         };
  36:../../libdaisy/src/per/i2c.h **** 
  37:../../libdaisy/src/per/i2c.h ****         /** Specifices the internal peripheral to use (these are mapped to different pins on the ha
  38:../../libdaisy/src/per/i2c.h ****         enum class Peripheral
  39:../../libdaisy/src/per/i2c.h ****         {
  40:../../libdaisy/src/per/i2c.h ****             I2C_1 = 0, /**< & */
  41:../../libdaisy/src/per/i2c.h ****             I2C_2,     /**< & */
  42:../../libdaisy/src/per/i2c.h ****             I2C_3,     /**< & */
  43:../../libdaisy/src/per/i2c.h ****             I2C_4,     /**< & */
  44:../../libdaisy/src/per/i2c.h ****         };
  45:../../libdaisy/src/per/i2c.h **** 
  46:../../libdaisy/src/per/i2c.h ****         /** Rate at which the clock/data will be sent/received. The device being used will have max
  47:../../libdaisy/src/per/i2c.h ****          *  1MHZ Mode is currently 886kHz
  48:../../libdaisy/src/per/i2c.h ****          */
  49:../../libdaisy/src/per/i2c.h ****         enum class Speed
  50:../../libdaisy/src/per/i2c.h ****         {
  51:../../libdaisy/src/per/i2c.h ****             I2C_100KHZ, /**< & */
  52:../../libdaisy/src/per/i2c.h ****             I2C_400KHZ, /**< & */
  53:../../libdaisy/src/per/i2c.h ****             I2C_1MHZ,   /**< & */
  54:../../libdaisy/src/per/i2c.h ****         };
  55:../../libdaisy/src/per/i2c.h **** 
  56:../../libdaisy/src/per/i2c.h ****         Peripheral periph; /**< & */
  57:../../libdaisy/src/per/i2c.h ****         struct
  58:../../libdaisy/src/per/i2c.h ****         {
  59:../../libdaisy/src/per/i2c.h ****             dsy_gpio_pin scl; /**< & */
  60:../../libdaisy/src/per/i2c.h ****             dsy_gpio_pin sda; /**< & */
  61:../../libdaisy/src/per/i2c.h ****         } pin_config;         /**< & */
  62:../../libdaisy/src/per/i2c.h **** 
  63:../../libdaisy/src/per/i2c.h ****         Speed speed; /**< & */
  64:../../libdaisy/src/per/i2c.h ****         Mode  mode;  /**< & */
  65:../../libdaisy/src/per/i2c.h ****         // 0x10 is chosen as a default to avoid conflicts with reserved addresses
  66:../../libdaisy/src/per/i2c.h ****         uint8_t address = 0x10; /**< & */
  67:../../libdaisy/src/per/i2c.h ****     };
  68:../../libdaisy/src/per/i2c.h **** 
  69:../../libdaisy/src/per/i2c.h ****     /** Return values for I2C functions. */
  70:../../libdaisy/src/per/i2c.h ****     enum class Result
  71:../../libdaisy/src/per/i2c.h ****     {
  72:../../libdaisy/src/per/i2c.h ****         OK, /**< & */
  73:../../libdaisy/src/per/i2c.h ****         ERR /**< & */
  74:../../libdaisy/src/per/i2c.h ****     };
  75:../../libdaisy/src/per/i2c.h **** 
  76:../../libdaisy/src/per/i2c.h ****     enum class Direction
  77:../../libdaisy/src/per/i2c.h ****     {
  78:../../libdaisy/src/per/i2c.h ****         TRANSMIT, /**< & */
  79:../../libdaisy/src/per/i2c.h ****         RECEIVE,  /**< & */
ARM GAS  C:\Users\TT\AppData\Local\Temp\ccQ2NNqc.s 			page 31


  80:../../libdaisy/src/per/i2c.h ****     };
  81:../../libdaisy/src/per/i2c.h **** 
  82:../../libdaisy/src/per/i2c.h ****     I2CHandle() : pimpl_(nullptr) {}
 720              		.loc 14 82 5 view .LVU168
 721              	.LBB368:
 722              	.LBB369:
 723              		.loc 14 82 33 is_stmt 0 view .LVU169
 724 0028 C5F8C044 		str	r4, [r5, #1216]
 725              	.LVL34:
 726              		.loc 14 82 33 view .LVU170
 727              	.LBE369:
 728              	.LBE368:
 729              	.LBE367:
 730              		.loc 13 30 7 view .LVU171
 731 002c FFF7FEFF 		bl	memcpy
 732              	.LVL35:
 733              		.loc 13 30 7 view .LVU172
 734              	.LBE370:
 735              	.LBE376:
 736              	.LBE379:
 737              	.LBE383:
  11:bass_stompbox.cpp **** DaisyPetal petal;
 738              		.loc 10 11 12 view .LVU173
 739 0030 3246     		mov	r2, r6
 740 0032 2846     		mov	r0, r5
 741 0034 0749     		ldr	r1, .L21+20
 742              	.LBE386:
 743              	.LBE390:
 744              		.loc 10 70 1 view .LVU174
 745 0036 BDE87040 		pop	{r4, r5, r6, lr}
 746              		.cfi_restore 14
 747              		.cfi_restore 6
 748              		.cfi_restore 5
 749              		.cfi_restore 4
 750              		.cfi_def_cfa_offset 0
 751              	.LBB391:
 752              	.LBB387:
  11:bass_stompbox.cpp **** DaisyPetal petal;
 753              		.loc 10 11 12 view .LVU175
 754 003a FFF7FEBF 		b	__aeabi_atexit
 755              	.LVL36:
 756              	.L22:
 757 003e 00BF     		.align	2
 758              	.L21:
 759 0040 00000000 		.word	.LANCHOR5
 760 0044 00000000 		.word	__dso_handle
 761 0048 00000000 		.word	.LANCHOR0
 762 004c 00000000 		.word	_ZN5daisy9DaisySeedD1Ev
 763 0050 00000000 		.word	.LANCHOR8
 764 0054 00000000 		.word	_ZN5daisy10DaisyPetalD1Ev
 765              	.LBE387:
 766              	.LBE391:
 767              		.cfi_endproc
 768              	.LFE4818:
 770              		.section	.init_array,"aw",%init_array
 771              		.align	2
 772 0000 00000000 		.word	_GLOBAL__sub_I_hw(target1)
ARM GAS  C:\Users\TT\AppData\Local\Temp\ccQ2NNqc.s 			page 32


 773              		.global	qspi_buffer
 774              		.global	presets
 775              		.global	osc_ON
 776              		.global	tone_ON
 777              		.global	flanger_ON
 778              		.global	compressor_ON
 779              		.global	petal
 780              		.global	hw
 781              		.section	.rodata
 782              		.align	2
 783              		.set	.LANCHOR8,. + 0
 784              	.LC0:
 785 0000 0000     		.short	0
 786 0002 0100     		.short	1
 787 0004 0100     		.short	1
 788 0006 0100     		.short	1
 789 0008 0100     		.short	1
 790 000a 0100     		.short	1
 791 000c 0100     		.short	1
 792 000e 0100     		.short	1
 793 0010 0100     		.short	1
 794 0012 0100     		.short	1
 795 0014 0100     		.short	1
 796 0016 0100     		.short	1
 797 0018 0200     		.short	2
 798 001a 0200     		.short	2
 799 001c 0200     		.short	2
 800 001e 0200     		.short	2
 801 0020 0200     		.short	2
 802 0022 0200     		.short	2
 803 0024 0200     		.short	2
 804 0026 0300     		.short	3
 805 0028 0300     		.short	3
 806 002a 0400     		.short	4
 807 002c 0400     		.short	4
 808 002e 0500     		.short	5
 809 0030 0500     		.short	5
 810 0032 0600     		.short	6
 811 0034 0700     		.short	7
 812 0036 0800     		.short	8
 813 0038 0800     		.short	8
 814 003a 0900     		.short	9
 815 003c 0A00     		.short	10
 816 003e 0B00     		.short	11
 817 0040 0C00     		.short	12
 818 0042 0D00     		.short	13
 819 0044 0F00     		.short	15
 820 0046 1000     		.short	16
 821 0048 1100     		.short	17
 822 004a 1200     		.short	18
 823 004c 1400     		.short	20
 824 004e 1500     		.short	21
 825 0050 1700     		.short	23
 826 0052 1900     		.short	25
 827 0054 1A00     		.short	26
 828 0056 1C00     		.short	28
 829 0058 1E00     		.short	30
ARM GAS  C:\Users\TT\AppData\Local\Temp\ccQ2NNqc.s 			page 33


 830 005a 2000     		.short	32
 831 005c 2200     		.short	34
 832 005e 2400     		.short	36
 833 0060 2600     		.short	38
 834 0062 2800     		.short	40
 835 0064 2B00     		.short	43
 836 0066 2D00     		.short	45
 837 0068 3000     		.short	48
 838 006a 3200     		.short	50
 839 006c 3500     		.short	53
 840 006e 3800     		.short	56
 841 0070 3B00     		.short	59
 842 0072 3E00     		.short	62
 843 0074 4100     		.short	65
 844 0076 4400     		.short	68
 845 0078 4700     		.short	71
 846 007a 4B00     		.short	75
 847 007c 4E00     		.short	78
 848 007e 5200     		.short	82
 849 0080 5500     		.short	85
 850 0082 5900     		.short	89
 851 0084 5D00     		.short	93
 852 0086 6100     		.short	97
 853 0088 6500     		.short	101
 854 008a 6900     		.short	105
 855 008c 6E00     		.short	110
 856 008e 7200     		.short	114
 857 0090 7700     		.short	119
 858 0092 7B00     		.short	123
 859 0094 8000     		.short	128
 860 0096 8500     		.short	133
 861 0098 8A00     		.short	138
 862 009a 8F00     		.short	143
 863 009c 9500     		.short	149
 864 009e 9A00     		.short	154
 865 00a0 9F00     		.short	159
 866 00a2 A500     		.short	165
 867 00a4 AB00     		.short	171
 868 00a6 B100     		.short	177
 869 00a8 B700     		.short	183
 870 00aa BD00     		.short	189
 871 00ac C300     		.short	195
 872 00ae CA00     		.short	202
 873 00b0 D000     		.short	208
 874 00b2 D700     		.short	215
 875 00b4 DE00     		.short	222
 876 00b6 E500     		.short	229
 877 00b8 EC00     		.short	236
 878 00ba F300     		.short	243
 879 00bc FA00     		.short	250
 880 00be 0201     		.short	258
 881 00c0 0A01     		.short	266
 882 00c2 1101     		.short	273
 883 00c4 1901     		.short	281
 884 00c6 2201     		.short	290
 885 00c8 2A01     		.short	298
 886 00ca 3201     		.short	306
ARM GAS  C:\Users\TT\AppData\Local\Temp\ccQ2NNqc.s 			page 34


 887 00cc 3B01     		.short	315
 888 00ce 4401     		.short	324
 889 00d0 4C01     		.short	332
 890 00d2 5501     		.short	341
 891 00d4 5F01     		.short	351
 892 00d6 6801     		.short	360
 893 00d8 7101     		.short	369
 894 00da 7B01     		.short	379
 895 00dc 8501     		.short	389
 896 00de 8F01     		.short	399
 897 00e0 9901     		.short	409
 898 00e2 A301     		.short	419
 899 00e4 AE01     		.short	430
 900 00e6 B801     		.short	440
 901 00e8 C301     		.short	451
 902 00ea CE01     		.short	462
 903 00ec D901     		.short	473
 904 00ee E501     		.short	485
 905 00f0 F001     		.short	496
 906 00f2 FC01     		.short	508
 907 00f4 0802     		.short	520
 908 00f6 1402     		.short	532
 909 00f8 2002     		.short	544
 910 00fa 2C02     		.short	556
 911 00fc 3902     		.short	569
 912 00fe 4602     		.short	582
 913 0100 5202     		.short	594
 914 0102 6002     		.short	608
 915 0104 6D02     		.short	621
 916 0106 7A02     		.short	634
 917 0108 8802     		.short	648
 918 010a 9602     		.short	662
 919 010c A402     		.short	676
 920 010e B202     		.short	690
 921 0110 C002     		.short	704
 922 0112 CF02     		.short	719
 923 0114 DE02     		.short	734
 924 0116 ED02     		.short	749
 925 0118 FC02     		.short	764
 926 011a 0B03     		.short	779
 927 011c 1B03     		.short	795
 928 011e 2B03     		.short	811
 929 0120 3B03     		.short	827
 930 0122 4B03     		.short	843
 931 0124 5B03     		.short	859
 932 0126 6C03     		.short	876
 933 0128 7D03     		.short	893
 934 012a 8E03     		.short	910
 935 012c 9F03     		.short	927
 936 012e B003     		.short	944
 937 0130 C203     		.short	962
 938 0132 D403     		.short	980
 939 0134 E603     		.short	998
 940 0136 F803     		.short	1016
 941 0138 0A04     		.short	1034
 942 013a 1D04     		.short	1053
 943 013c 3004     		.short	1072
ARM GAS  C:\Users\TT\AppData\Local\Temp\ccQ2NNqc.s 			page 35


 944 013e 4304     		.short	1091
 945 0140 5604     		.short	1110
 946 0142 6A04     		.short	1130
 947 0144 7E04     		.short	1150
 948 0146 9204     		.short	1170
 949 0148 A604     		.short	1190
 950 014a BA04     		.short	1210
 951 014c CF04     		.short	1231
 952 014e E404     		.short	1252
 953 0150 F904     		.short	1273
 954 0152 0E05     		.short	1294
 955 0154 2405     		.short	1316
 956 0156 3A05     		.short	1338
 957 0158 5005     		.short	1360
 958 015a 6605     		.short	1382
 959 015c 7C05     		.short	1404
 960 015e 9305     		.short	1427
 961 0160 AA05     		.short	1450
 962 0162 C105     		.short	1473
 963 0164 D905     		.short	1497
 964 0166 F005     		.short	1520
 965 0168 0806     		.short	1544
 966 016a 2006     		.short	1568
 967 016c 3906     		.short	1593
 968 016e 5106     		.short	1617
 969 0170 6A06     		.short	1642
 970 0172 8306     		.short	1667
 971 0174 9D06     		.short	1693
 972 0176 B606     		.short	1718
 973 0178 D006     		.short	1744
 974 017a EA06     		.short	1770
 975 017c 0507     		.short	1797
 976 017e 1F07     		.short	1823
 977 0180 3A07     		.short	1850
 978 0182 5507     		.short	1877
 979 0184 7107     		.short	1905
 980 0186 8C07     		.short	1932
 981 0188 A807     		.short	1960
 982 018a C407     		.short	1988
 983 018c E107     		.short	2017
 984 018e FD07     		.short	2045
 985 0190 1A08     		.short	2074
 986 0192 3708     		.short	2103
 987 0194 5508     		.short	2133
 988 0196 7208     		.short	2162
 989 0198 9008     		.short	2192
 990 019a AF08     		.short	2223
 991 019c CD08     		.short	2253
 992 019e EC08     		.short	2284
 993 01a0 0B09     		.short	2315
 994 01a2 2A09     		.short	2346
 995 01a4 4A09     		.short	2378
 996 01a6 6A09     		.short	2410
 997 01a8 8A09     		.short	2442
 998 01aa AA09     		.short	2474
 999 01ac CB09     		.short	2507
 1000 01ae EC09     		.short	2540
ARM GAS  C:\Users\TT\AppData\Local\Temp\ccQ2NNqc.s 			page 36


 1001 01b0 0D0A     		.short	2573
 1002 01b2 2E0A     		.short	2606
 1003 01b4 500A     		.short	2640
 1004 01b6 720A     		.short	2674
 1005 01b8 940A     		.short	2708
 1006 01ba B70A     		.short	2743
 1007 01bc DA0A     		.short	2778
 1008 01be FD0A     		.short	2813
 1009 01c0 210B     		.short	2849
 1010 01c2 440B     		.short	2884
 1011 01c4 680B     		.short	2920
 1012 01c6 8D0B     		.short	2957
 1013 01c8 B10B     		.short	2993
 1014 01ca D60B     		.short	3030
 1015 01cc FB0B     		.short	3067
 1016 01ce 210C     		.short	3105
 1017 01d0 470C     		.short	3143
 1018 01d2 6D0C     		.short	3181
 1019 01d4 930C     		.short	3219
 1020 01d6 BA0C     		.short	3258
 1021 01d8 E10C     		.short	3297
 1022 01da 080D     		.short	3336
 1023 01dc 300D     		.short	3376
 1024 01de 580D     		.short	3416
 1025 01e0 800D     		.short	3456
 1026 01e2 A80D     		.short	3496
 1027 01e4 D10D     		.short	3537
 1028 01e6 FA0D     		.short	3578
 1029 01e8 230E     		.short	3619
 1030 01ea 4D0E     		.short	3661
 1031 01ec 770E     		.short	3703
 1032 01ee A10E     		.short	3745
 1033 01f0 CC0E     		.short	3788
 1034 01f2 F70E     		.short	3831
 1035 01f4 220F     		.short	3874
 1036 01f6 4E0F     		.short	3918
 1037 01f8 7A0F     		.short	3962
 1038 01fa A60F     		.short	4006
 1039 01fc D20F     		.short	4050
 1040 01fe FF0F     		.short	4095
 1041              		.section	.bss.compressor_ON,"aw",%nobits
 1042              		.set	.LANCHOR1,. + 0
 1045              	compressor_ON:
 1046 0000 00       		.space	1
 1047              		.section	.bss.flanger_ON,"aw",%nobits
 1048              		.set	.LANCHOR2,. + 0
 1051              	flanger_ON:
 1052 0000 00       		.space	1
 1053              		.section	.bss.hw,"aw",%nobits
 1054              		.align	2
 1055              		.set	.LANCHOR5,. + 0
 1058              	hw:
 1059 0000 00000000 		.space	64
 1059      00000000 
 1059      00000000 
 1059      00000000 
 1059      00000000 
ARM GAS  C:\Users\TT\AppData\Local\Temp\ccQ2NNqc.s 			page 37


 1060              		.section	.bss.osc_ON,"aw",%nobits
 1061              		.set	.LANCHOR4,. + 0
 1064              	osc_ON:
 1065 0000 00       		.space	1
 1066              		.section	.bss.petal,"aw",%nobits
 1067              		.align	2
 1068              		.set	.LANCHOR0,. + 0
 1071              	petal:
 1072 0000 00000000 		.space	1752
 1072      00000000 
 1072      00000000 
 1072      00000000 
 1072      00000000 
 1073              		.section	.bss.presets,"aw",%nobits
 1074              		.align	2
 1075              		.set	.LANCHOR7,. + 0
 1078              	presets:
 1079 0000 00000000 		.space	16
 1079      00000000 
 1079      00000000 
 1079      00000000 
 1080              		.section	.bss.tone_ON,"aw",%nobits
 1081              		.set	.LANCHOR3,. + 0
 1084              	tone_ON:
 1085 0000 00       		.space	1
 1086              		.section	.qspiflash_bss,"aw"
 1087              		.align	2
 1088              		.set	.LANCHOR6,. + 0
 1091              	qspi_buffer:
 1092 0000 00000000 		.space	16
 1092      00000000 
 1092      00000000 
 1092      00000000 
 1093              		.text
 1094              	.Letext0:
 1095              		.file 15 "d:\\gnu_arm_embedded_toolchain\\10_2020-q4-major\\arm-none-eabi\\include\\machine\\_defa
 1096              		.file 16 "d:\\gnu_arm_embedded_toolchain\\10_2020-q4-major\\arm-none-eabi\\include\\sys\\_stdint.h
 1097              		.file 17 "d:\\gnu_arm_embedded_toolchain\\10_2020-q4-major\\arm-none-eabi\\include\\stdint.h"
 1098              		.file 18 "d:\\gnu_arm_embedded_toolchain\\10_2020-q4-major\\lib\\gcc\\arm-none-eabi\\10.2.1\\inclu
 1099              		.file 19 "d:\\gnu_arm_embedded_toolchain\\10_2020-q4-major\\arm-none-eabi\\include\\c++\\10.2.1\\c
 1100              		.file 20 "d:\\gnu_arm_embedded_toolchain\\10_2020-q4-major\\arm-none-eabi\\include\\c++\\10.2.1\\b
 1101              		.file 21 "d:\\gnu_arm_embedded_toolchain\\10_2020-q4-major\\arm-none-eabi\\include\\c++\\10.2.1\\c
 1102              		.file 22 "d:\\gnu_arm_embedded_toolchain\\10_2020-q4-major\\arm-none-eabi\\include\\c++\\10.2.1\\c
 1103              		.file 23 "d:\\gnu_arm_embedded_toolchain\\10_2020-q4-major\\arm-none-eabi\\include\\c++\\10.2.1\\t
 1104              		.file 24 "d:\\gnu_arm_embedded_toolchain\\10_2020-q4-major\\arm-none-eabi\\include\\c++\\10.2.1\\d
 1105              		.file 25 "d:\\gnu_arm_embedded_toolchain\\10_2020-q4-major\\arm-none-eabi\\include\\c++\\10.2.1\\a
 1106              		.file 26 "d:\\gnu_arm_embedded_toolchain\\10_2020-q4-major\\arm-none-eabi\\include\\c++\\10.2.1\\b
 1107              		.file 27 "d:\\gnu_arm_embedded_toolchain\\10_2020-q4-major\\arm-none-eabi\\include\\c++\\10.2.1\\b
 1108              		.file 28 "d:\\gnu_arm_embedded_toolchain\\10_2020-q4-major\\arm-none-eabi\\include\\c++\\10.2.1\\b
 1109              		.file 29 "d:\\gnu_arm_embedded_toolchain\\10_2020-q4-major\\arm-none-eabi\\include\\c++\\10.2.1\\c
 1110              		.file 30 "d:\\gnu_arm_embedded_toolchain\\10_2020-q4-major\\arm-none-eabi\\include\\c++\\10.2.1\\c
 1111              		.file 31 "d:\\gnu_arm_embedded_toolchain\\10_2020-q4-major\\arm-none-eabi\\include\\c++\\10.2.1\\c
 1112              		.file 32 "d:\\gnu_arm_embedded_toolchain\\10_2020-q4-major\\arm-none-eabi\\include\\c++\\10.2.1\\c
 1113              		.file 33 "d:\\gnu_arm_embedded_toolchain\\10_2020-q4-major\\arm-none-eabi\\include\\c++\\10.2.1\\b
 1114              		.file 34 "d:\\gnu_arm_embedded_toolchain\\10_2020-q4-major\\arm-none-eabi\\include\\c++\\10.2.1\\b
 1115              		.file 35 "d:\\gnu_arm_embedded_toolchain\\10_2020-q4-major\\arm-none-eabi\\include\\c++\\10.2.1\\c
 1116              		.file 36 "d:\\gnu_arm_embedded_toolchain\\10_2020-q4-major\\arm-none-eabi\\include\\c++\\10.2.1\\b
ARM GAS  C:\Users\TT\AppData\Local\Temp\ccQ2NNqc.s 			page 38


 1117              		.file 37 "d:\\gnu_arm_embedded_toolchain\\10_2020-q4-major\\arm-none-eabi\\include\\sys\\_types.h"
 1118              		.file 38 "d:\\gnu_arm_embedded_toolchain\\10_2020-q4-major\\arm-none-eabi\\include\\sys\\reent.h"
 1119              		.file 39 "d:\\gnu_arm_embedded_toolchain\\10_2020-q4-major\\arm-none-eabi\\include\\sys\\lock.h"
 1120              		.file 40 "d:\\gnu_arm_embedded_toolchain\\10_2020-q4-major\\arm-none-eabi\\include\\math.h"
 1121              		.file 41 "d:\\gnu_arm_embedded_toolchain\\10_2020-q4-major\\arm-none-eabi\\include\\stdlib.h"
 1122              		.file 42 "d:\\gnu_arm_embedded_toolchain\\10_2020-q4-major\\arm-none-eabi\\include\\c++\\10.2.1\\m
 1123              		.file 43 "d:\\gnu_arm_embedded_toolchain\\10_2020-q4-major\\arm-none-eabi\\include\\c++\\10.2.1\\s
 1124              		.file 44 "../../libdaisy/src/daisy_core.h"
 1125              		.file 45 "../../libdaisy/src/per/tim.h"
 1126              		.file 46 "../../libdaisy/src/per/sai.h"
 1127              		.file 47 "../../libdaisy/src/util/wav_format.h"
 1128              		.file 48 "../../libdaisy/src/hid/led.h"
 1129              		.file 49 "../../libdaisy/src/util/color.h"
 1130              		.file 50 "../../libdaisy/src/hid/rgb_led.h"
 1131              		.file 51 "../../libdaisy/src/per/gpio.h"
 1132              		.file 52 "../../libdaisy/src/dev/sdram.h"
 1133              		.file 53 "d:\\gnu_arm_embedded_toolchain\\10_2020-q4-major\\lib\\gcc\\arm-none-eabi\\10.2.1\\inclu
 1134              		.file 54 "d:\\gnu_arm_embedded_toolchain\\10_2020-q4-major\\arm-none-eabi\\include\\stdio.h"
 1135              		.file 55 "../../DaisySP/Source/Control/adenv.h"
 1136              		.file 56 "../../DaisySP/Source/Utility/dsp.h"
 1137              		.file 57 "d:\\gnu_arm_embedded_toolchain\\10_2020-q4-major\\arm-none-eabi\\include\\wchar.h"
 1138              		.file 58 "d:\\gnu_arm_embedded_toolchain\\10_2020-q4-major\\arm-none-eabi\\include\\locale.h"
 1139              		.file 59 "d:\\gnu_arm_embedded_toolchain\\10_2020-q4-major\\arm-none-eabi\\include\\string.h"
 1140              		.file 60 "../../libdaisy/src/dev/sr_595.h"
 1141              		.file 61 "<built-in>"
ARM GAS  C:\Users\TT\AppData\Local\Temp\ccQ2NNqc.s 			page 39

